(dp1
I0
I1193
sI1
I661
sI2
I914
sI3
I3408
sI4
I2355
sI5
I1197
sI6
I1287
sI7
I2804
sI8
I594
sI9
I919
sI10
I595
sI11
I938
sI12
I2398
sI13
I2918
sI14
I1035
sI15
I2791
sI16
I2687
sI17
I2018
sI18
I3105
sI19
I2797
sI20
I2321
sI21
I720
sI22
I1270
sI23
I527
sI24
I2340
sI25
I48
sI26
I1097
sI27
I1721
sI28
I1545
sI29
I745
sI30
I2294
sI31
I3186
sI32
I1566
sI33
I588
sI34
I1907
sI35
I783
sI36
I1836
sI37
I1022
sI38
I2762
sI39
I150
sI40
I1
sI41
I1961
sI42
I1962
sI43
I2692
sI44
I260
sI45
I1028
sI46
I1029
sI47
I1207
sI48
I2028
sI49
I531
sI50
I3114
sI51
I608
sI52
I1246
sI53
I1357
sI54
I3068
sI55
I1537
sI56
I647
sI57
I2194
sI58
I648
sI59
I2268
sI60
I2628
sI61
I1103
sI62
I2916
sI63
I3468
sI64
I1210
sI65
I1792
sI66
I1687
sI67
I1213
sI68
I3578
sI69
I2881
sI70
I3030
sI71
I1217
sI72
I434
sI73
I2126
sI74
I3107
sI75
I3108
sI76
I3035
sI77
I1253
sI78
I1610
sI79
I292
sI80
I2236
sI81
I3071
sI82
I902
sI83
I368
sI84
I1259
sI85
I3147
sI86
I1544
sI87
I1293
sI88
I1188
sI89
I3255
sI90
I3256
sI91
I3257
sI92
I110
sI93
I2278
sI94
I2490
sI95
I1834
sI96
I3471
sI97
I589
sI98
I1690
sI99
I3654
sI100
I2852
sI101
I1945
sI102
I982
sI103
I1873
sI104
I2858
sI105
I1225
sI106
I515
sI107
I442
sI108
I2312
sI109
I265
sI110
I1408
sI111
I1084
sI112
I3699
sI113
I480
sI114
I1442
sI115
I2067
sI116
I1265
sI117
I1370
sI118
I1801
sI119
I1372
sI120
I2353
sI121
I3334
sI122
I2427
sI123
I590
sI124
I1196
sI125
I1552
sI126
I736
sI127
I1198
sI128
I593
sI129
I2359
sI130
I95
sI131
I2717
sI132
I2571
sI133
I1917
sI134
I2396
sI135
I3735
sI136
I1953
sI137
I1597
sI138
I3809
sI139
I1954
sI140
I1955
sI141
I235
sI142
I1124
sI143
I1957
sI144
I163
sI145
I21
sI146
I165
sI147
I1090
sI148
I380
sI149
I2501
sI150
I349
sI151
I457
sI152
I1096
sI153
I920
sI154
I459
sI155
I1527
sI156
I3418
sI157
I1385
sI158
I3451
sI159
I3095
sI160
I780
sI161
I498
sI162
I2728
sI163
I2002
sI164
I1784
sI165
I2943
sI166
I2006
sI167
I318
sI168
I1968
sI169
I3678
sI170
I1244
sI171
I356
sI172
I1245
sI173
I3893
sI174
I1247
sI175
I3421
sI176
I1641
sI177
I1394
sI178
I3534
sI179
I104
sI180
I2735
sI181
I1431
sI182
I3868
sI183
I1079
sI184
I2997
sI185
I1615
sI186
I1291
sI187
I653
sI188
I2167
sI189
I1580
sI190
I3619
sI191
I1049
sI192
I1261
sI193
I552
sI194
I1266
sI195
I733
sI196
I1378
sI197
I1379
sI198
I3552
sI199
I1304
sI200
I2470
sI201
I3168
sI202
I2617
sI203
I3671
sI204
I2871
sI205
I2115
sI206
I1136
sI207
I2081
sI208
I2951
sI209
I1214
sI210
I1036
sI211
I3702
sI212
I2366
sI213
I1387
sI214
I3527
sI215
I1201
sI216
I2947
sI217
I1240
sI218
I2987
sI219
I2333
sI220
I1175
sI221
I39
sI222
I288
sI223
I2337
sI224
I1535
sI225
I1392
sI226
I1466
sI227
I860
sI228
I1683
sI229
I866
sI230
I1684
sI231
I2770
sI232
I215
sI233
I1759
sI234
I501
sI235
I506
sI236
I1250
sI237
I3793
sI238
I509
sI239
I41
sI240
I2058
sI241
I3799
sI242
I47
sI243
I2700
sI244
I296
sI245
I581
sI246
I1617
sI247
I728
sI248
I299
sI249
I3079
sI250
I2560
sI251
I1909
sI252
I224
sI253
I3728
sI254
I229
sI255
I6
sI256
I3006
sI257
I1046
sI258
I800
sI259
I50
sI260
I52
sI261
I1191
sI262
I1192
sI263
I3081
sI264
I377
sI265
I1268
sI266
I3083
sI267
I3513
sI268
I2428
sI269
I2282
sI270
I3514
sI271
I1554
sI272
I1912
sI273
I2716
sI274
I1485
sI275
I2289
sI276
I162
sI277
I1127
sI278
I3016
sI279
I2070
sI280
I1704
sI281
I3163
sI282
I2437
sI283
I2291
sI284
I1635
sI285
I1279
sI286
I2721
sI287
I2723
sI288
I1921
sI289
I2725
sI290
I1923
sI291
I2580
sI292
I3386
sI293
I3744
sI294
I968
sI295
I896
sI296
I3020
sI297
I1788
sI298
I176
sI299
I461
sI300
I1429
sI301
I2159
sI302
I1715
sI303
I1643
sI304
I3249
sI305
I3176
sI306
I1719
sI307
I2806
sI308
I2734
sI309
I1649
sI310
I321
sI311
I2013
sI312
I3100
sI313
I2952
sI314
I1794
sI315
I2599
sI316
I1500
sI317
I2959
sI318
I1509
sI319
I1722
sI320
I1650
sI321
I908
sI322
I1653
sI323
I2384
sI324
I1729
sI325
I3476
sI326
I2890
sI327
I3113
sI328
I16
sI329
I2029
sI330
I194
sI331
I551
sI332
I1513
sI333
I3046
sI334
I2318
sI335
I1517
sI336
I1089
sI337
I3260
sI338
I913
sI339
I1730
sI340
I3409
sI341
I2607
sI342
I1449
sI343
I1732
sI344
I1733
sI345
I2390
sI346
I1734
sI347
I3266
sI348
I3267
sI349
I3624
sI350
I2395
sI351
I1594
sI352
I2683
sI353
I412
sI354
I2759
sI355
I994
sI356
I1884
sI357
I1885
sI358
I272
sI359
I24
sI360
I3051
sI361
I348
sI362
I2323
sI363
I1093
sI364
I29
sI365
I562
sI366
I1095
sI367
I1529
sI368
I2188
sI369
I497
sI370
I202
sI371
I1747
sI372
I2908
sI373
I1966
sI374
I3499
sI375
I353
sI376
I32
sI377
I1243
sI378
I1897
sI379
I1171
sI380
I3786
sI381
I34
sI382
I357
sI383
I36
sI384
I714
sI385
I2406
sI386
I1101
sI387
I3717
sI388
I1030
sI389
I1688
sI390
I364
sI391
I3501
sI392
I3072
sI393
I3074
sI394
I3508
sI395
I1043
sI396
I597
sI397
I383
sI398
I2506
sI399
I3524
sI400
I1569
sI401
I2082
sI402
I3600
sI403
I3604
sI404
I2802
sI405
I3536
sI406
I3753
sI407
I3682
sI408
I2017
sI409
I3685
sI410
I3610
sI411
I1296
sI412
I838
sI413
I1007
sI414
I1947
sI415
I2966
sI416
I266
sI417
I17
sI418
I1441
sI419
I1088
sI420
I912
sI421
I199
sI422
I1806
sI423
I2469
sI424
I2100
sI425
I1959
sI426
I1380
sI427
I569
sI428
I1674
sI429
I3565
sI430
I861
sI431
I1997
sI432
I1573
sI433
I474
sI434
I1221
sI435
I2336
sI436
I3425
sI437
I1393
sI438
I1682
sI439
I508
sI440
I3213
sI441
I42
sI442
I650
sI443
I3500
sI444
I3148
sI445
I2702
sI446
I1476
sI447
I1693
sI448
I151
sI449
I510
sI450
I4
sI451
I1621
sI452
I3155
sI453
I58
sI454
I2712
sI455
I2429
sI456
I1840
sI457
I1916
sI458
I1488
sI459
I230
sI460
I1120
sI461
I161
sI462
I1411
sI463
I524
sI464
I1059
sI465
I454
sI466
I1701
sI467
I1274
sI468
I741
sI469
I1277
sI470
I1639
sI471
I3528
sI472
I2297
sI473
I465
sI474
I1711
sI475
I538
sI476
I393
sI477
I2442
sI478
I73
sI479
I3246
sI480
I3173
sI481
I105
sI482
I253
sI483
I3250
sI484
I3252
sI485
I476
sI486
I111
sI487
I3259
sI488
I1589
sI489
I2023
sI490
I14
sI491
I337
sI492
I2314
sI493
I2600
sI494
I269
sI495
I555
sI496
I1660
sI497
I3265
sI498
I1735
sI499
I3481
sI500
I2686
sI501
I2688
sI502
I345
sI503
I2320
sI504
I25
sI505
I2324
sI506
I2329
sI507
I1810
sI508
I2541
sI509
I1673
sI510
I1678
sI511
I1027
sI512
I2699
sI513
I282
sI514
I367
sI515
I223
sI516
I3298
sI517
I3948
sI518
I805
sI519
I3510
sI520
I300
sI521
I1777
sI522
I3301
sI523
I1343
sI524
I3160
sI525
I529
sI526
I3452
sI527
I1060
sI528
I1356
sI529
I1358
sI530
I3178
sI531
I3751
sI532
I3826
sI533
I3755
sI534
I2302
sI535
I1148
sI536
I2166
sI537
I3253
sI538
I1584
sI539
I1223
sI540
I1446
sI541
I3623
sI542
I778
sI543
I1669
sI544
I3484
sI545
I3916
sI546
I1233
sI547
I1307
sI548
I3270
sI549
I1310
sI550
I428
sI551
I2622
sI552
I3358
sI553
I3359
sI554
I1756
sI555
I1320
sI556
I2124
sI557
I2125
sI558
I2054
sI559
I1252
sI560
I1254
sI561
I3869
sI562
I1256
sI563
I1257
sI564
I1831
sI565
I3363
sI566
I586
sI567
I587
sI568
I3438
sI569
I3439
sI570
I3296
sI571
I2496
sI572
I2497
sI573
I2
sI574
I2498
sI575
I153
sI576
I7
sI577
I2133
sI578
I2135
sI579
I2136
sI580
I2137
sI581
I802
sI582
I2138
sI583
I1409
sI584
I1339
sI585
I1269
sI586
I2640
sI587
I592
sI588
I596
sI589
I3447
sI590
I1918
sI591
I2140
sI592
I2072
sI593
I1271
sI594
I1345
sI595
I2077
sI596
I2078
sI597
I1276
sI598
I743
sI599
I671
sI600
I1278
sI601
I3525
sI602
I1927
sI603
I2657
sI604
I3388
sI605
I316
sI606
I317
sI607
I248
sI608
I2080
sI609
I1282
sI610
I1283
sI611
I750
sI612
I2087
sI613
I1286
sI614
I3608
sI615
I2662
sI616
I3466
sI617
I2300
sI618
I180
sI619
I329
sI620
I3034
sI621
I186
sI622
I2161
sI623
I3037
sI624
I2090
sI625
I3039
sI626
I2091
sI627
I830
sI628
I2093
sI629
I904
sI630
I2094
sI631
I1292
sI632
I2096
sI633
I1294
sI634
I765
sI635
I2746
sI636
I1009
sI637
I1948
sI638
I333
sI639
I339
sI640
I2316
sI641
I1371
sI642
I2174
sI643
I1374
sI644
I1375
sI645
I915
sI646
I1376
sI647
I1377
sI648
I916
sI649
I918
sI650
I1012
sI651
I2826
sI652
I3629
sI653
I1015
sI654
I1016
sI655
I1019
sI656
I3489
sI657
I344
sI658
I275
sI659
I2252
sI660
I277
sI661
I923
sI662
I924
sI663
I3701
sI664
I3703
sI665
I926
sI666
I3704
sI667
I1020
sI668
I784
sI669
I858
sI670
I1023
sI671
I1025
sI672
I2693
sI673
I1967
sI674
I351
sI675
I2405
sI676
I2407
sI677
I3066
sI678
I2193
sI679
I932
sI680
I1031
sI681
I1104
sI682
I1032
sI683
I435
sI684
I943
sI685
I3723
sI686
I1042
sI687
I370
sI688
I2423
sI689
I3153
sI690
I2424
sI691
I3086
sI692
I3087
sI693
I953
sI694
I954
sI695
I3591
sI696
I2863
sI697
I3593
sI698
I1125
sI699
I520
sI700
I3668
sI701
I2795
sI702
I1129
sI703
I2431
sI704
I62
sI705
I3309
sI706
I1633
sI707
I2436
sI708
I3097
sI709
I3099
sI710
I3812
sI711
I2000
sI712
I963
sI713
I2001
sI714
I1200
sI715
I2003
sI716
I1203
sI717
I2005
sI718
I1204
sI719
I969
sI720
I2872
sI721
I3675
sI722
I2946
sI723
I898
sI724
I2009
sI725
I2874
sI726
I899
sI727
I1135
sI728
I2948
sI729
I539
sI730
I2371
sI731
I3247
sI732
I3174
sI733
I3175
sI734
I2375
sI735
I2378
sI736
I971
sI737
I2011
sI738
I2012
sI739
I2015
sI740
I1215
sI741
I1073
sI742
I3688
sI743
I541
sI744
I542
sI745
I543
sI746
I3254
sI747
I2453
sI748
I2529
sI749
I1654
sI750
I1583
sI751
I3189
sI752
I116
sI753
I1586
sI754
I2021
sI755
I1220
sI756
I1080
sI757
I2967
sI758
I2968
sI759
I2530
sI760
I3264
sI761
I3194
sI762
I2393
sI763
I3198
sI764
I2399
sI765
I1302
sI766
I1230
sI767
I2105
sI768
I2033
sI769
I2108
sI770
I1234
sI771
I2109
sI772
I1091
sI773
I3347
sI774
I203
sI775
I1676
sI776
I208
sI777
I2111
sI778
I2040
sI779
I2041
sI780
I3928
sI781
I2043
sI782
I2045
sI783
I2046
sI784
I2047
sI785
I2049
sI786
I1753
sI787
I216
sI788
I2706
sI789
I2639
sI790
I2710
sI791
I663
sI792
I3448
sI793
I231
sI794
I2076
sI795
I246
sI796
I249
sI797
I1288
sI798
I3396
sI799
I3101
sI800
I2598
sI801
I2306
sI802
I764
sI803
I342
sI804
I1887
sI805
I2325
sI806
I3129
sI807
I2907
sI808
I788
sI809
I2766
sI810
I2335
sI811
I1461
sI812
I3146
sI813
I1546
sI814
I440
sI815
I441
sI816
I2507
sI817
I1563
sI818
I1498
sI819
I2883
sI820
I3182
sI821
I85
sI822
I88
sI823
I986
sI824
I481
sI825
I2539
sI826
I1665
sI827
I2106
sI828
I708
sI829
I3362
sI830
I813
sI831
I3897
sI832
I934
sI833
I3658
sI834
I1303
sI835
I999
sI836
I2616
sI837
I3785
sI838
I1331
sI839
I1262
sI840
I2641
sI841
I3036
sI842
I3479
sI843
I10
sI844
I2822
sI845
I3494
sI846
I421
sI847
I3070
sI848
I2414
sI849
I1479
sI850
I517
sI851
I952
sI852
I60
sI853
I3745
sI854
I2370
sI855
I1216
sI856
I2528
sI857
I1587
sI858
I3269
sI859
I3417
sI860
I3354
sI861
I1263
sI862
I2572
sI863
I2731
sI864
I3033
sI865
I2243
sI866
I2694
sI867
I2920
sI868
I1982
sI869
I2976
sI870
I2485
sI871
I141
sI872
I3798
sI873
I2707
sI874
I2567
sI875
I3004
sI876
I3005
sI877
I2719
sI878
I160
sI879
I748
sI880
I2724
sI881
I2581
sI882
I1783
sI883
I1422
sI884
I3461
sI885
I3535
sI886
I257
sI887
I832
sI888
I762
sI889
I2676
sI890
I1883
sI891
I2763
sI892
I3566
sI893
I2764
sI894
I1892
sI895
I1608
sI896
I1396
sI897
I2840
sI898
I2841
sI899
I3646
sI900
I500
sI901
I3145
sI902
I2272
sI903
I2273
sI904
I1619
sI905
I1625
sI906
I1487
sI907
I1702
sI908
I2433
sI909
I70
sI910
I1644
sI911
I1645
sI912
I2882
sI913
I2387
sI914
I2389
sI915
I2961
sI916
I553
sI917
I628
sI918
I3261
sI919
I2605
sI920
I1804
sI921
I1805
sI922
I2391
sI923
I2394
sI924
I3773
sI925
I1092
sI926
I1672
sI927
I2555
sI928
I2629
sI929
I2701
sI930
I2568
sI931
I2713
sI932
I1911
sI933
I3516
sI934
I2643
sI935
I2720
sI936
I2722
sI937
I2805
sI938
I2828
sI939
I2761
sI940
I2856
sI941
I2369
sI942
I2888
sI943
I2392
sI944
I2975
sI945
I1179
sI946
I2553
sI947
I2554
sI948
I3932
sI949
I3863
sI950
I1185
sI951
I3503
sI952
I3879
sI953
I3375
sI954
I1779
sI955
I164
sI956
I3457
sI957
I319
sI958
I247
sI959
I1428
sI960
I1284
sI961
I2660
sI962
I2661
sI963
I2663
sI964
I2664
sI965
I2667
sI966
I2668
sI967
I3032
sI968
I2311
sI969
I2173
sI970
I198
sI971
I2752
sI972
I340
sI973
I3700
sI974
I2901
sI975
I3638
sI976
I30
sI977
I1601
sI978
I3713
sI979
I2912
sI980
I3576
sI981
I503
sI982
I293
sI983
I1614
sI984
I2346
sI985
I942
sI986
I446
sI987
I1624
sI988
I3156
sI989
I2287
sI990
I2288
sI991
I3662
sI992
I3594
sI993
I3300
sI994
I1206
sI995
I1069
sI996
I76
sI997
I2377
sI998
I2010
sI999
I3827
sI1000
I610
sI1001
I1077
sI1002
I2526
sI1003
I2527
sI1004
I2454
sI1005
I2455
sI1006
I3696
sI1007
I2533
sI1008
I1301
sI1009
I707
sI1010
I2613
sI1011
I2542
sI1012
I496
sI1013
I2549
sI1014
I1748
sI1015
I3927
sI1016
I2116
sI1017
I2117
sI1018
I2985
sI1019
I2989
sI1020
I2123
sI1021
I2052
sI1022
I2993
sI1023
I1186
sI1024
I222
sI1025
I158
sI1026
I3877
sI1027
I2139
sI1028
I3440
sI1029
I737
sI1030
I2718
sI1031
I2573
sI1032
I302
sI1033
I232
sI1034
I2141
sI1035
I2142
sI1036
I168
sI1037
I2143
sI1038
I2145
sI1039
I1344
sI1040
I3889
sI1041
I1275
sI1042
I3526
sI1043
I313
sI1044
I2153
sI1045
I2083
sI1046
I2085
sI1047
I2089
sI1048
I2807
sI1049
I2739
sI1050
I3397
sI1051
I3398
sI1052
I3399
sI1053
I327
sI1054
I1367
sI1055
I839
sI1056
I1005
sI1057
I405
sI1058
I1876
sI1059
I261
sI1060
I262
sI1061
I2248
sI1062
I1013
sI1063
I1882
sI1064
I1956
sI1065
I26
sI1066
I2253
sI1067
I3705
sI1068
I3633
sI1069
I3635
sI1070
I1960
sI1071
I3639
sI1072
I2402
sI1073
I2404
sI1074
I1606
sI1075
I1391
sI1076
I1033
sI1077
I291
sI1078
I44
sI1079
I2348
sI1080
I940
sI1081
I2421
sI1082
I2422
sI1083
I1126
sI1084
I1562
sI1085
I1499
sI1086
I1064
sI1087
I532
sI1088
I466
sI1089
I2373
sI1090
I2014
sI1091
I2953
sI1092
I2019
sI1093
I616
sI1094
I546
sI1095
I2450
sI1096
I475
sI1097
I86
sI1098
I2020
sI1099
I2025
sI1100
I2893
sI1101
I3698
sI1102
I485
sI1103
I1591
sI1104
I1739
sI1105
I3911
sI1106
I1094
sI1107
I493
sI1108
I2042
sI1109
I1242
sI1110
I3930
sI1111
I1321
sI1112
I2990
sI1113
I2991
sI1114
I1327
sI1115
I1258
sI1116
I2633
sI1117
I2638
sI1118
I1407
sI1119
I1334
sI1120
I2064
sI1121
I2644
sI1122
I2646
sI1123
I2647
sI1124
I2574
sI1125
I1772
sI1126
I2648
sI1127
I2649
sI1128
I1340
sI1129
I2653
sI1130
I1350
sI1131
I2160
sI1132
I330
sI1133
I1373
sI1134
I842
sI1135
I785
sI1136
I2836
sI1137
I420
sI1138
I3208
sI1139
I2338
sI1140
I2195
sI1141
I1974
sI1142
I879
sI1143
I2782
sI1144
I2789
sI1145
I3082
sI1146
I2860
sI1147
I2790
sI1148
I3596
sI1149
I1994
sI1150
I2502
sI1151
I2367
sI1152
I2296
sI1153
I2004
sI1154
I2949
sI1155
I1717
sI1156
I2376
sI1157
I3752
sI1158
I1219
sI1159
I3325
sI1160
I1655
sI1161
I2103
sI1162
I3273
sI1163
I1694
sI1164
I1468
sI1165
I585
sI1166
I3000
sI1167
I2800
sI1168
I3053
sI1169
I3268
sI1170
I3774
sI1171
I3355
sI1172
I1754
sI1173
I145
sI1174
I1689
sI1175
I2122
sI1176
I2134
sI1177
I1405
sI1178
I3017
sI1179
I1347
sI1180
I818
sI1181
I3450
sI1182
I678
sI1183
I312
sI1184
I173
sI1185
I2150
sI1186
I1425
sI1187
I3896
sI1188
I1799
sI1189
I256
sI1190
I185
sI1191
I2163
sI1192
I1438
sI1193
I833
sI1194
I2671
sI1195
I910
sI1196
I2249
sI1197
I771
sI1198
I849
sI1199
I3120
sI1200
I3052
sI1201
I2189
sI1202
I786
sI1203
I429
sI1204
I2263
sI1205
I2265
sI1206
I1034
sI1207
I798
sI1208
I799
sI1209
I1037
sI1210
I3210
sI1211
I2413
sI1212
I2416
sI1213
I1047
sI1214
I3660
sI1215
I3661
sI1216
I2792
sI1217
I1991
sI1218
I2794
sI1219
I65
sI1220
I1205
sI1221
I3243
sI1222
I2374
sI1223
I473
sI1224
I81
sI1225
I3258
sI1226
I112
sI1227
I3835
sI1228
I1222
sI1229
I3917
sI1230
I2478
sI1231
I1248
sI1232
I1249
sI1233
I3420
sI1234
I3505
sI1235
I1189
sI1236
I3507
sI1237
I3435
sI1238
I659
sI1239
I2202
sI1240
I1267
sI1241
I1199
sI1242
I2642
sI1243
I1845
sI1244
I3952
sI1245
I2148
sI1246
I2149
sI1247
I3521
sI1248
I674
sI1249
I2726
sI1250
I2808
sI1251
I3104
sI1252
I187
sI1253
I903
sI1254
I3618
sI1255
I3474
sI1256
I11
sI1257
I2241
sI1258
I3044
sI1259
I196
sI1260
I911
sI1261
I2176
sI1262
I3551
sI1263
I3556
sI1264
I1958
sI1265
I2322
sI1266
I2259
sI1267
I1388
sI1268
I3634
sI1269
I3708
sI1270
I1965
sI1271
I2409
sI1272
I2917
sI1273
I431
sI1274
I2410
sI1275
I2411
sI1276
I45
sI1277
I2419
sI1278
I951
sI1279
I521
sI1280
I3740
sI1281
I3741
sI1282
I2511
sI1283
I1212
sI1284
I1218
sI1285
I3763
sI1286
I1227
sI1287
I556
sI1288
I3338
sI1289
I125
sI1290
I3770
sI1291
I1306
sI1292
I2973
sI1293
I3920
sI1294
I1313
sI1295
I2118
sI1296
I2119
sI1297
I3424
sI1298
I3361
sI1299
I2132
sI1300
I303
sI1301
I2144
sI1302
I175
sI1303
I2301
sI1304
I2245
sI1305
I2757
sI1306
I3707
sI1307
I425
sI1308
I2915
sI1309
I372
sI1310
I2352
sI1311
I1057
sI1312
I468
sI1313
I1663
sI1314
I2709
sI1315
I157
sI1316
I1920
sI1317
I688
sI1318
I3676
sI1319
I3422
sI1320
I3423
sI1321
I719
sI1322
I3426
sI1323
I3287
sI1324
I2558
sI1325
I217
sI1326
I2053
sI1327
I2059
sI1328
I724
sI1329
I3502
sI1330
I3506
sI1331
I3360
sI1332
I1833
sI1333
I3
sI1334
I5
sI1335
I804
sI1336
I3441
sI1337
I234
sI1338
I236
sI1339
I237
sI1340
I2146
sI1341
I673
sI1342
I315
sI1343
I2154
sI1344
I1285
sI1345
I252
sI1346
I3614
sI1347
I1298
sI1348
I3543
sI1349
I1003
sI1350
I694
sI1351
I3040
sI1352
I2313
sI1353
I267
sI1354
I195
sI1355
I2247
sI1356
I1880
sI1357
I413
sI1358
I416
sI1359
I1888
sI1360
I276
sI1361
I278
sI1362
I3056
sI1363
I1381
sI1364
I1457
sI1365
I852
sI1366
I2906
sI1367
I1021
sI1368
I350
sI1369
I424
sI1370
I3130
sI1371
I2403
sI1372
I3206
sI1373
I3063
sI1374
I2261
sI1375
I38
sI1376
I2262
sI1377
I1463
sI1378
I1390
sI1379
I2266
sI1380
I2269
sI1381
I1100
sI1382
I432
sI1383
I2779
sI1384
I361
sI1385
I2412
sI1386
I1541
sI1387
I3219
sI1388
I2418
sI1389
I3584
sI1390
I511
sI1391
I518
sI1392
I445
sI1393
I2420
sI1394
I3152
sI1395
I378
sI1396
I1556
sI1397
I3590
sI1398
I450
sI1399
I2798
sI1400
I381
sI1401
I455
sI1402
I1703
sI1403
I3308
sI1404
I64
sI1405
I3098
sI1406
I2942
sI1407
I2875
sI1408
I605
sI1409
I609
sI1410
I463
sI1411
I1713
sI1412
I1640
sI1413
I467
sI1414
I74
sI1415
I3248
sI1416
I2447
sI1417
I2950
sI1418
I3684
sI1419
I3686
sI1420
I612
sI1421
I540
sI1422
I3689
sI1423
I471
sI1424
I472
sI1425
I2459
sI1426
I1588
sI1427
I118
sI1428
I3690
sI1429
I550
sI1430
I3331
sI1431
I3263
sI1432
I487
sI1433
I2463
sI1434
I94
sI1435
I122
sI1436
I1593
sI1437
I3846
sI1438
I491
sI1439
I3274
sI1440
I2473
sI1441
I499
sI1442
I207
sI1443
I135
sI1444
I1180
sI1445
I3364
sI1446
I2066
sI1447
I3469
sI1448
I905
sI1449
I922
sI1450
I2186
sI1451
I930
sI1452
I947
sI1453
I3730
sI1454
I955
sI1455
I528
sI1456
I3683
sI1457
I1237
sI1458
I2550
sI1459
I144
sI1460
I901
sI1461
I906
sI1462
I3548
sI1463
I334
sI1464
I846
sI1465
I928
sI1466
I1208
sI1467
I1224
sI1468
I3366
sI1469
I3370
sI1470
I1785
sI1471
I3102
sI1472
I3062
sI1473
I3726
sI1474
I2363
sI1475
I2944
sI1476
I3836
sI1477
I3769
sI1478
I1085
sI1479
I3405
sI1480
I2534
sI1481
I3197
sI1482
I494
sI1483
I1176
sI1484
I3943
sI1485
I3949
sI1486
I1922
sI1487
I3554
sI1488
I1041
sI1489
I1657
sI1490
I2544
sI1491
I2208
sI1492
I2065
sI1493
I3012
sI1494
I3022
sI1495
I3028
sI1496
I1281
sI1497
I3462
sI1498
I1937
sI1499
I1297
sI1500
I2747
sI1501
I921
sI1502
I3200
sI1503
I933
sI1504
I3640
sI1505
I1976
sI1506
I946
sI1507
I2922
sI1508
I2780
sI1509
I3088
sI1510
I957
sI1511
I2935
sI1512
I2936
sI1513
I3096
sI1514
I961
sI1515
I2870
sI1516
I3244
sI1517
I1235
sI1518
I3341
sI1519
I3349
sI1520
I3429
sI1521
I3286
sI1522
I28
sI1523
I3159
sI1524
I3821
sI1525
I3787
sI1526
I1680
sI1527
I3935
sI1528
I1183
sI1529
I3504
sI1530
I2637
sI1531
I2565
sI1532
I154
sI1533
I1699
sI1534
I2206
sI1535
I1333
sI1536
I3018
sI1537
I3019
sI1538
I2071
sI1539
I1272
sI1540
I1348
sI1541
I2650
sI1542
I2303
sI1543
I1295
sI1544
I907
sI1545
I1299
sI1546
I3546
sI1547
I2817
sI1548
I2674
sI1549
I1946
sI1550
I3110
sI1551
I3111
sI1552
I2178
sI1553
I1017
sI1554
I3121
sI1555
I2183
sI1556
I927
sI1557
I3498
sI1558
I3203
sI1559
I3204
sI1560
I1464
sI1561
I931
sI1562
I2344
sI1563
I2921
sI1564
I949
sI1565
I3727
sI1566
I2926
sI1567
I3587
sI1568
I3733
sI1569
I2932
sI1570
I2867
sI1571
I3599
sI1572
I3230
sI1573
I3167
sI1574
I3169
sI1575
I2941
sI1576
I1130
sI1577
I1061
sI1578
I3681
sI1579
I3760
sI1580
I3693
sI1581
I1152
sI1582
I1086
sI1583
I2467
sI1584
I1300
sI1585
I3844
sI1586
I1231
sI1587
I3340
sI1588
I2612
sI1589
I565
sI1590
I3271
sI1591
I2983
sI1592
I1835
sI1593
I3387
sI1594
I837
sI1595
I1895
sI1596
I3712
sI1597
I3597
sI1598
I2796
sI1599
I2432
sI1600
I2379
sI1601
I2380
sI1602
I2382
sI1603
I2383
sI1604
I2471
sI1605
I1251
sI1606
I2708
sI1607
I1760
sI1608
I3365
sI1609
I155
sI1610
I3871
sI1611
I803
sI1612
I1264
sI1613
I3512
sI1614
I2575
sI1615
I1419
sI1616
I824
sI1617
I2088
sI1618
I2732
sI1619
I3467
sI1620
I2238
sI1621
I2239
sI1622
I3473
sI1623
I3549
sI1624
I1949
sI1625
I2171
sI1626
I2682
sI1627
I3567
sI1628
I1964
sI1629
I3060
sI1630
I2331
sI1631
I3061
sI1632
I863
sI1633
I2919
sI1634
I3649
sI1635
I945
sI1636
I3725
sI1637
I948
sI1638
I3091
sI1639
I965
sI1640
I3320
sI1641
I1078
sI1642
I2385
sI1643
I3831
sI1644
I1081
sI1645
I2969
sI1646
I123
sI1647
I1162
sI1648
I2611
sI1649
I2474
sI1650
I3852
sI1651
I1172
sI1652
I3788
sI1653
I1827
sI1654
I233
sI1655
I172
sI1656
I178
sI1657
I2155
sI1658
I2815
sI1659
I1875
sI1660
I3480
sI1661
I2250
sI1662
I3706
sI1663
I1963
sI1664
I1603
sI1665
I2334
sI1666
I1395
sI1667
I2774
sI1668
I507
sI1669
I3142
sI1670
I1616
sI1671
I449
sI1672
I1480
sI1673
I1147
sI1674
I3697
sI1675
I3196
sI1676
I2972
sI1677
I2540
sI1678
I3864
sI1679
I1977
sI1680
I1353
sI1681
I691
sI1682
I2677
sI1683
I13
sI1684
I779
sI1685
I1894
sI1686
I46
sI1687
I1620
sI1688
I92
sI1689
I490
sI1690
I2772
sI1691
I3157
sI1692
I2027
sI1693
I3519
sI1694
I2669
sI1695
I258
sI1696
I2816
sI1697
I2748
sI1698
I3628
sI1699
I3643
sI1700
I2430
sI1701
I897
sI1702
I976
sI1703
I2524
sI1704
I3406
sI1705
I2537
sI1706
I3412
sI1707
I1658
sI1708
I2546
sI1709
I3937
sI1710
I1924
sI1711
I1518
sI1712
I3555
sI1713
I2681
sI1714
I2408
sI1715
I379
sI1716
I3802
sI1717
I880
sI1718
I3807
sI1719
I66
sI1720
I3758
sI1721
I2520
sI1722
I2456
sI1723
I1590
sI1724
I2034
sI1725
I3780
sI1726
I2986
sI1727
I3011
sI1728
I2097
sI1729
I3612
sI1730
I1952
sI1731
I2846
sI1732
I1983
sI1733
I1984
sI1734
I1985
sI1735
I1986
sI1736
I891
sI1737
I107
sI1738
I3251
sI1739
I2460
sI1740
I2461
sI1741
I2462
sI1742
I3771
sI1743
I2107
sI1744
I2110
sI1745
I1821
sI1746
I3284
sI1747
I140
sI1748
I218
sI1749
I3436
sI1750
I2491
sI1751
I2492
sI1752
I2205
sI1753
I3873
sI1754
I3874
sI1755
I1914
sI1756
I305
sI1757
I1414
sI1758
I1782
sI1759
I753
sI1760
I2738
sI1761
I900
sI1762
I2168
sI1763
I3540
sI1764
I909
sI1765
I697
sI1766
I3045
sI1767
I1014
sI1768
I2829
sI1769
I1018
sI1770
I1453
sI1771
I1600
sI1772
I355
sI1773
I35
sI1774
I287
sI1775
I289
sI1776
I2339
sI1777
I1398
sI1778
I937
sI1779
I2849
sI1780
I2415
sI1781
I2417
sI1782
I3076
sI1783
I371
sI1784
I447
sI1785
I2426
sI1786
I2356
sI1787
I1632
sI1788
I2292
sI1789
I3814
sI1790
I2443
sI1791
I469
sI1792
I1571
sI1793
I2884
sI1794
I1226
sI1795
I1083
sI1796
I489
sI1797
I2468
sI1798
I1666
sI1799
I2037
sI1800
I633
sI1801
I492
sI1802
I566
sI1803
I205
sI1804
I1677
sI1805
I3280
sI1806
I3939
sI1807
I847
sI1808
I1969
sI1809
I1102
sI1810
I1970
sI1811
I1971
sI1812
I1972
sI1813
I1973
sI1814
I1975
sI1815
I1978
sI1816
I1979
sI1817
I366
sI1818
I1980
sI1819
I1981
sI1820
I3677
sI1821
I2523
sI1822
I575
sI1823
I2050
sI1824
I599
sI1825
I2152
sI1826
I1359
sI1827
I829
sI1828
I835
sI1829
I836
sI1830
I1526
sI1831
I1459
sI1832
I2401
sI1833
I1602
sI1834
I1474
sI1835
I3404
sI1836
I2531
sI1837
I2532
sI1838
I991
sI1839
I996
sI1840
I1752
sI1841
I1762
sI1842
I239
sI1843
I170
sI1844
I1931
sI1845
I1797
sI1846
I3615
sI1847
I1944
sI1848
I3477
sI1849
I336
sI1850
I15
sI1851
I19
sI1852
I1010
sI1853
I1011
sI1854
I3483
sI1855
I2827
sI1856
I410
sI1857
I346
sI1858
I419
sI1859
I423
sI1860
I280
sI1861
I360
sI1862
I2857
sI1863
I513
sI1864
I514
sI1865
I516
sI1866
I374
sI1867
I54
sI1868
I376
sI1869
I453
sI1870
I533
sI1871
I534
sI1872
I2016
sI1873
I2965
sI1874
I486
sI1875
I3926
sI1876
I159
sI1877
I1054
sI1878
I89
sI1879
I3861
sI1880
I3509
sI1881
I3390
sI1882
I3616
sI1883
I23
sI1884
I2007
sI1885
I1337
sI1886
I2500
sI1887
I3617
sI1888
I3553
sI1889
I886
sI1890
I93
sI1891
I1177
sI1892
I571
sI1893
I718
sI1894
I2120
sI1895
I1184
sI1896
I580
sI1897
I1190
sI1898
I735
sI1899
I1342
sI1900
I1417
sI1901
I1352
sI1902
I1280
sI1903
I2232
sI1904
I2162
sI1905
I2165
sI1906
I1290
sI1907
I1365
sI1908
I766
sI1909
I2315
sI1910
I1522
sI1911
I2328
sI1912
I2264
sI1913
I3067
sI1914
I1609
sI1915
I1611
sI1916
I3078
sI1917
I2349
sI1918
I1623
sI1919
I1627
sI1920
I1483
sI1921
I950
sI1922
I3307
sI1923
I3092
sI1924
I893
sI1925
I2517
sI1926
I100
sI1927
I3179
sI1928
I1648
sI1929
I3326
sI1930
I1726
sI1931
I2606
sI1932
I126
sI1933
I3342
sI1934
I1816
sI1935
I3285
sI1936
I1686
sI1937
I148
sI1938
I3437
sI1939
I1769
sI1940
I1913
sI1941
I1848
sI1942
I307
sI1943
I309
sI1944
I242
sI1945
I177
sI1946
I3605
sI1947
I3464
sI1948
I1861
sI1949
I3393
sI1950
I322
sI1951
I326
sI1952
I184
sI1953
I259
sI1954
I188
sI1955
I3478
sI1956
I190
sI1957
I193
sI1958
I18
sI1959
I268
sI1960
I3620
sI1961
I3550
sI1962
I2750
sI1963
I1950
sI1964
I3557
sI1965
I341
sI1966
I415
sI1967
I22
sI1968
I427
sI1969
I281
sI1970
I358
sI1971
I3571
sI1972
I436
sI1973
I290
sI1974
I365
sI1975
I2851
sI1976
I2781
sI1977
I2787
sI1978
I519
sI1979
I448
sI1980
I55
sI1981
I1051
sI1982
I2793
sI1983
I522
sI1984
I382
sI1985
I456
sI1986
I3747
sI1987
I1211
sI1988
I2956
sI1989
I611
sI1990
I617
sI1991
I3764
sI1992
I482
sI1993
I3918
sI1994
I3919
sI1995
I1305
sI1996
I2038
sI1997
I561
sI1998
I2112
sI1999
I2114
sI2000
I1173
sI2001
I3049
sI2002
I3217
sI2003
I2788
sI2004
I3672
sI2005
I2786
sI2006
I3794
sI2007
I3797
sI2008
I2310
sI2009
I3820
sI2010
I3694
sI2011
I1228
sI2012
I2057
sI2013
I3024
sI2014
I695
sI2015
I2184
sI2016
I2364
sI2017
I2365
sI2018
I3328
sI2019
I2615
sI2020
I1862
sI2021
I2744
sI2022
I3663
sI2023
I3664
sI2024
I392
sI2025
I2891
sI2026
I3923
sI2027
I1311
sI2028
I2147
sI2029
I1421
sI2030
I3201
sI2031
I3134
sI2032
I3224
sI2033
I3089
sI2034
I959
sI2035
I978
sI2036
I3185
sI2037
I3414
sI2038
I3350
sI2039
I314
sI2040
I1935
sI2041
I3545
sI2042
I2670
sI2043
I1951
sI2044
I3655
sI2045
I3808
sI2046
I3811
sI2047
I3742
sI2048
I3816
sI2049
I1066
sI2050
I615
sI2051
I3910
sI2052
I1241
sI2053
I113
sI2054
I1731
sI2055
I2583
sI2056
I3882
sI2057
I3238
sI2058
I3316
sI2059
I3190
sI2060
I3511
sI2061
I3564
sI2062
I3743
sI2063
I3908
sI2064
I3784
sI2065
I3789
sI2066
I2130
sI2067
I1401
sI2068
I806
sI2069
I2069
sI2070
I664
sI2071
I2212
sI2072
I3015
sI2073
I2079
sI2074
I3103
sI2075
I3109
sI2076
I1432
sI2077
I1363
sI2078
I1366
sI2079
I2177
sI2080
I848
sI2081
I1450
sI2082
I782
sI2083
I929
sI2084
I2341
sI2085
I1477
sI2086
I1629
sI2087
I956
sI2088
I2435
sI2089
I2290
sI2090
I960
sI2091
I3317
sI2092
I974
sI2093
I1727
sI2094
I2457
sI2095
I3330
sI2096
I2472
sI2097
I132
sI2098
I3430
sI2099
I225
sI2100
I3518
sI2101
I3529
sI2102
I2729
sI2103
I3602
sI2104
I1934
sI2105
I1938
sI2106
I254
sI2107
I182
sI2108
I3613
sI2109
I2819
sI2110
I2820
sI2111
I2755
sI2112
I418
sI2113
I279
sI2114
I437
sI2115
I3724
sI2116
I3729
sI2117
I1050
sI2118
I3738
sI2119
I2939
sI2120
I451
sI2121
I2940
sI2122
I1209
sI2123
I78
sI2124
I79
sI2125
I82
sI2126
I1082
sI2127
I3841
sI2128
I1161
sI2129
I630
sI2130
I1099
sI2131
I3929
sI2132
I640
sI2133
I3007
sI2134
I3115
sI2135
I2505
sI2136
I1707
sI2137
I166
sI2138
I2596
sI2139
I2672
sI2140
I2678
sI2141
I1416
sI2142
I2913
sI2143
I9
sI2144
I2803
sI2145
I1919
sI2146
I637
sI2147
I973
sI2148
I1939
sI2149
I2929
sI2150
I3112
sI2151
I3069
sI2152
I1926
sI2153
I2690
sI2154
I2434
sI2155
I2439
sI2156
I1904
sI2157
I40
sI2158
I2995
sI2159
I43
sI2160
I2979
sI2161
I1187
sI2162
I3124
sI2163
I8
sI2164
I692
sI2165
I2170
sI2166
I2196
sI2167
I2448
sI2168
I990
sI2169
I2625
sI2170
I3444
sI2171
I240
sI2172
I1858
sI2173
I1004
sI2174
I2879
sI2175
I464
sI2176
I3767
sI2177
I3768
sI2178
I704
sI2179
I869
sI2180
I2357
sI2181
I577
sI2182
I801
sI2183
I2092
sI2184
I3054
sI2185
I1460
sI2186
I1551
sI2187
I2354
sI2188
I1489
sI2189
I885
sI2190
I1495
sI2191
I1582
sI2192
I3400
sI2193
I1592
sI2194
I2559
sI2195
I146
sI2196
I238
sI2197
I169
sI2198
I181
sI2199
I502
sI2200
I362
sI2201
I87
sI2202
I2899
sI2203
I558
sI2204
I700
sI2205
I2036
sI2206
I631
sI2207
I634
sI2208
I709
sI2209
I711
sI2210
I3946
sI2211
I3898
sI2212
I3710
sI2213
I536
sI2214
I3783
sI2215
I2771
sI2216
I1131
sI2217
I3282
sI2218
I2499
sI2219
I156
sI2220
I3606
sI2221
I1871
sI2222
I417
sI2223
I1024
sI2224
I298
sI2225
I72
sI2226
I84
sI2227
I2971
sI2228
I568
sI2229
I2873
sI2230
I2024
sI2231
I1178
sI2232
I1260
sI2233
I3093
sI2234
I2924
sI2235
I69
sI2236
I2519
sI2237
I2861
sI2238
I941
sI2239
I3324
sI2240
I3299
sI2241
I3825
sI2242
I3914
sI2243
I3859
sI2244
I754
sI2245
I3118
sI2246
I583
sI2247
I2157
sI2248
I826
sI2249
I2347
sI2250
I3384
sI2251
I438
sI2252
I1112
sI2253
I390
sI2254
I2927
sI2255
I2060
sI2256
I1437
sI2257
I2190
sI2258
I3141
sI2259
I2279
sI2260
I993
sI2261
I2582
sI2262
I12
sI2263
I294
sI2264
I373
sI2265
I63
sI2266
I2880
sI2267
I477
sI2268
I2073
sI2269
I1238
sI2270
I810
sI2271
I3895
sI2272
I2084
sI2273
I2169
sI2274
I1605
sI2275
I3225
sI2276
I1595
sI2277
I1750
sI2278
I2566
sI2279
I3515
sI2280
I2714
sI2281
I3453
sI2282
I3454
sI2283
I1881
sI2284
I2876
sI2285
I3824
sI2286
I2102
sI2287
I3776
sI2288
I2978
sI2289
I2048
sI2290
I667
sI2291
I1599
sI2292
I2476
sI2293
I204
sI2294
I1681
sI2295
I2818
sI2296
I3933
sI2297
I1349
sI2298
I3837
sI2299
I1542
sI2300
I2203
sI2301
I3870
sI2302
I2204
sI2303
I2210
sI2304
I1507
sI2305
I936
sI2306
I944
sI2307
I1596
sI2308
I1929
sI2309
I1936
sI2310
I1940
sI2311
I2904
sI2312
I3736
sI2313
I2937
sI2314
I1824
sI2315
I2938
sI2316
I3901
sI2317
I2535
sI2318
I3936
sI2319
I71
sI2320
I3791
sI2321
I3872
sI2322
I851
sI2323
I3177
sI2324
I3357
sI2325
I1755
sI2326
I3580
sI2327
I2877
sI2328
I3754
sI2329
I3915
sI2330
I2285
sI2331
I998
sI2332
I3029
sI2333
I1515
sI2334
I2181
sI2335
I1661
sI2336
I1925
sI2337
I1942
sI2338
I1167
sI2339
I3938
sI2340
I3913
sI2341
I3925
sI2342
I2098
sI2343
I2231
sI2344
I2280
sI2345
I1860
sI2346
I1325
sI2347
I2182
sI2348
I3883
sI2349
I3327
sI2350
I2099
sI2351
I3537
sI2352
I1995
sI2353
I2121
sI2354
I1322
sI2355
I1326
sI2356
I1328
sI2357
I1329
sI2358
I3941
sI2359
I3942
sI2360
I3013
sI2361
I2327
sI2362
I3138
sI2363
I2368
sI2364
I2515
sI2365
I2451
sI2366
I2525
sI2367
I3403
sI2368
I2634
sI2369
I2635
sI2370
I2645
sI2371
I2652
sI2372
I2736
sI2373
I2665
sI2374
I324
sI2375
I251
sI2376
I328
sI2377
I332
sI2378
I407
sI2379
I273
sI2380
I3491
sI2381
I3659
sI2382
I1987
sI2383
I1988
sI2384
I3806
sI2385
I1992
sI2386
I1128
sI2387
I1993
sI2388
I1996
sI2389
I1999
sI2390
I2878
sI2391
I606
sI2392
I2026
sI2393
I3840
sI2394
I3843
sI2395
I2104
sI2396
I3921
sI2397
I2113
sI2398
I892
sI2399
I241
sI2400
I3538
sI2401
I3934
sI2402
I742
sI2403
I3792
sI2404
I3001
sI2405
I3014
sI2406
I1355
sI2407
I687
sI2408
I2242
sI2409
I1389
sI2410
I2260
sI2411
I2267
sI2412
I3211
sI2413
I2343
sI2414
I875
sI2415
I3304
sI2416
I2518
sI2417
I101
sI2418
I2381
sI2419
I1807
sI2420
I2551
sI2421
I1841
sI2422
I3389
sI2423
I3465
sI2424
I2741
sI2425
I2745
sI2426
I2749
sI2427
I20
sI2428
I1890
sI2429
I3497
sI2430
I2928
sI2431
I2866
sI2432
I458
sI2433
I387
sI2434
I603
sI2435
I544
sI2436
I3766
sI2437
I3849
sI2438
I3125
sI2439
I1415
sI2440
I171
sI2441
I1879
sI2442
I1063
sI2443
I715
sI2444
I3865
sI2445
I3795
sI2446
I3150
sI2447
I2284
sI2448
I2561
sI2449
I1889
sI2450
I2769
sI2451
I3720
sI2452
I3822
sI2453
I3756
sI2454
I3857
sI2455
I3132
sI2456
I3073
sI2457
I3154
sI2458
I3311
sI2459
I1404
sI2460
I1439
sI2461
I1472
sI2462
I1647
sI2463
I1662
sI2464
I1053
sI2465
I384
sI2466
I2458
sI2467
I2654
sI2468
I1855
sI2469
I645
sI2470
I574
sI2471
I649
sI2472
I665
sI2473
I668
sI2474
I1354
sI2475
I781
sI2476
I1543
sI2477
I117
sI2478
I2609
sI2479
I3416
sI2480
I211
sI2481
I147
sI2482
I1900
sI2483
I306
sI2484
I1859
sI2485
I406
sI2486
I2696
sI2487
I2697
sI2488
I2925
sI2489
I3819
sI2490
I3746
sI2491
I535
sI2492
I627
sI2493
I97
sI2494
I2361
sI2495
I3064
sI2496
I129
sI2497
I1670
sI2498
I3579
sI2499
I3884
sI2500
I3719
sI2501
I512
sI2502
I548
sI2503
I1289
sI2504
I1454
sI2505
I793
sI2506
I3094
sI2507
I1780
sI2508
I1856
sI2509
I1932
sI2510
I3392
sI2511
I3395
sI2512
I1111
sI2513
I3813
sI2514
I549
sI2515
I2998
sI2516
I2360
sI2517
I213
sI2518
I206
sI2519
I2495
sI2520
I3539
sI2521
I3627
sI2522
I3679
sI2523
I1941
sI2524
I3801
sI2525
I3135
sI2526
I935
sI2527
I3292
sI2528
I3371
sI2529
I2570
sI2530
I2801
sI2531
I2862
sI2532
I3834
sI2533
I3853
sI2534
I3855
sI2535
I1194
sI2536
I760
sI2537
I1667
sI2538
I808
sI2539
I2086
sI2540
I2240
sI2541
I1445
sI2542
I3214
sI2543
I870
sI2544
I2626
sI2545
I3431
sI2546
I3432
sI2547
I3433
sI2548
I3434
sI2549
I2494
sI2550
I227
sI2551
I3385
sI2552
I3394
sI2553
I1008
sI2554
I408
sI2555
I338
sI2556
I426
sI2557
I3585
sI2558
I460
sI2559
I3117
sI2560
I1516
sI2561
I3055
sI2562
I787
sI2563
I3077
sI2564
I3192
sI2565
I3272
sI2566
I3275
sI2567
I2621
sI2568
I1910
sI2569
I308
sI2570
I2730
sI2571
I320
sI2572
I2594
sI2573
I2812
sI2574
I3625
sI2575
I3718
sI2576
I363
sI2577
I2859
sI2578
I1123
sI2579
I1055
sI2580
I1202
sI2581
I391
sI2582
I3903
sI2583
I3906
sI2584
I3858
sI2585
I759
sI2586
I3860
sI2587
I3950
sI2588
I1502
sI2589
I1539
sI2590
I1612
sI2591
I3302
sI2592
I1564
sI2593
I987
sI2594
I2482
sI2595
I1767
sI2596
I179
sI2597
I1896
sI2598
I3581
sI2599
I3598
sI2600
I68
sI2601
I3749
sI2602
I3823
sI2603
I2962
sI2604
I1236
sI2605
I638
sI2606
I325
sI2607
I274
sI2608
I1581
sI2609
I3415
sI2610
I3470
sI2611
I1273
sI2612
I2255
sI2613
I2295
sI2614
I3199
sI2615
I209
sI2616
I271
sI2617
I2905
sI2618
I352
sI2619
I2977
sI2620
I564
sI2621
I639
sI2622
I1812
sI2623
I1998
sI2624
I2988
sI2625
I2068
sI2626
I670
sI2627
I1361
sI2628
I2330
sI2629
I214
sI2630
I523
sI2631
I602
sI2632
I83
sI2633
I2022
sI2634
I809
sI2635
I1456
sI2636
I1604
sI2637
I1465
sI2638
I1473
sI2639
I1475
sI2640
I1497
sI2641
I2514
sI2642
I2516
sI2643
I1744
sI2644
I2548
sI2645
I1902
sI2646
I152
sI2647
I1771
sI2648
I1866
sI2649
I2597
sI2650
I1869
sI2651
I3709
sI2652
I2835
sI2653
I1119
sI2654
I479
sI2655
I2898
sI2656
I98
sI2657
I2974
sI2658
I3782
sI2659
I2996
sI2660
I1255
sI2661
I3520
sI2662
I2656
sI2663
I2666
sI2664
I3592
sI2665
I2035
sI2666
I3922
sI2667
I3924
sI2668
I831
sI2669
I1613
sI2670
I2504
sI2671
I2513
sI2672
I984
sI2673
I3401
sI2674
I3262
sI2675
I3673
sI2676
I3674
sI2677
I201
sI2678
I876
sI2679
I2372
sI2680
I3329
sI2681
I1728
sI2682
I1928
sI2683
I2587
sI2684
I1930
sI2685
I1933
sI2686
I255
sI2687
I1943
sI2688
I3475
sI2689
I1169
sI2690
I3002
sI2691
I669
sI2692
I3010
sI2693
I3951
sI2694
I1413
sI2695
I3885
sI2696
I680
sI2697
I3038
sI2698
I3047
sI2699
I2180
sI2700
I854
sI2701
I3075
sI2702
I2351
sI2703
I3235
sI2704
I1631
sI2705
I3090
sI2706
I3241
sI2707
I2512
sI2708
I2440
sI2709
I1572
sI2710
I970
sI2711
I3188
sI2712
I2488
sI2713
I2630
sI2714
I3379
sI2715
I2579
sI2716
I3456
sI2717
I2659
sI2718
I183
sI2719
I3547
sI2720
I2824
sI2721
I3559
sI2722
I2689
sI2723
I2830
sI2724
I3568
sI2725
I3731
sI2726
I2864
sI2727
I1132
sI2728
I1068
sI2729
I3680
sI2730
I99
sI2731
I2970
sI2732
I1232
sI2733
I3127
sI2734
I2271
sI2735
I3281
sI2736
I2590
sI2737
I1044
sI2738
I3041
sI2739
I3391
sI2740
I3715
sI2741
I3144
sI2742
I1825
sI2743
I31
sI2744
I1323
sI2745
I2475
sI2746
I3449
sI2747
I2552
sI2748
I573
sI2749
I2994
sI2750
I3008
sI2751
I685
sI2752
I3128
sI2753
I1397
sI2754
I1399
sI2755
I2276
sI2756
I1547
sI2757
I1482
sI2758
I1725
sI2759
I988
sI2760
I2610
sI2761
I1811
sI2762
I2479
sI2763
I2493
sI2764
I2711
sI2765
I301
sI2766
I2679
sI2767
I3711
sI2768
I369
sI2769
I57
sI2770
I388
sI2771
I613
sI2772
I2963
sI2773
I621
sI2774
I483
sI2775
I3839
sI2776
I409
sI2777
I1062
sI2778
I3886
sI2779
I761
sI2780
I1626
sI2781
I2614
sI2782
I504
sI2783
I3810
sI2784
I547
sI2785
I2894
sI2786
I776
sI2787
I137
sI2788
I3909
sI2789
I747
sI2790
I717
sI2791
I3867
sI2792
I3796
sI2793
I725
sI2794
I3031
sI2795
I2305
sI2796
I1503
sI2797
I767
sI2798
I774
sI2799
I2425
sI2800
I3158
sI2801
I3245
sI2802
I3181
sI2803
I2602
sI2804
I1741
sI2805
I2624
sI2806
I2483
sI2807
I1844
sI2808
I3459
sI2809
I2585
sI2810
I3532
sI2811
I1867
sI2812
I1795
sI2813
I1796
sI2814
I1891
sI2815
I2768
sI2816
I2844
sI2817
I1105
sI2818
I1058
sI2819
I525
sI2820
I67
sI2821
I80
sI2822
I3902
sI2823
I488
sI2824
I632
sI2825
I635
sI2826
I495
sI2827
I1646
sI2828
I1550
sI2829
I2445
sI2830
I27
sI2831
I295
sI2832
I3761
sI2833
I3162
sI2834
I1874
sI2835
I2865
sI2836
I1346
sI2837
I3180
sI2838
I1746
sI2839
I2651
sI2840
I1854
sI2841
I174
sI2842
I191
sI2843
I414
sI2844
I354
sI2845
I430
sI2846
I433
sI2847
I2889
sI2848
I710
sI2849
I1642
sI2850
I2589
sI2851
I2695
sI2852
I3945
sI2853
I2307
sI2854
I3165
sI2855
I3653
sI2856
I2129
sI2857
I3947
sI2858
I149
sI2859
I3149
sI2860
I2785
sI2861
I1427
sI2862
I917
sI2863
I1523
sI2864
I1531
sI2865
I2999
sI2866
I1410
sI2867
I2809
sI2868
I1317
sI2869
I2051
sI2870
I2151
sI2871
I3042
sI2872
I3043
sI2873
I3048
sI2874
I2345
sI2875
I2286
sI2876
I3161
sI2877
I964
sI2878
I102
sI2879
I119
sI2880
I131
sI2881
I3427
sI2882
I1839
sI2883
I1857
sI2884
I1863
sI2885
I3622
sI2886
I2685
sI2887
I3496
sI2888
I505
sI2889
I444
sI2890
I3804
sI2891
I537
sI2892
I3695
sI2893
I2031
sI2894
I2032
sI2895
I2900
sI2896
I1484
sI2897
I1076
sI2898
I570
sI2899
I662
sI2900
I1533
sI2901
I1471
sI2902
I877
sI2903
I3187
sI2904
I1585
sI2905
I1664
sI2906
I3343
sI2907
I263
sI2908
I3562
sI2909
I3716
sI2910
I1114
sI2911
I1150
sI2912
I2964
sI2913
I2062
sI2914
I3050
sI2915
I2569
sI2916
I3563
sI2917
I2839
sI2918
I3851
sI2919
I2075
sI2920
I3544
sI2921
I811
sI2922
I751
sI2923
I1508
sI2924
I3221
sI2925
I958
sI2926
I128
sI2927
I3577
sI2928
I2008
sI2929
I77
sI2930
I3830
sI2931
I2897
sI2932
I3854
sI2933
I250
sI2934
I1423
sI2935
I844
sI2936
I3215
sI2937
I3222
sI2938
I3171
sI2939
I3714
sI2940
I3586
sI2941
I3734
sI2942
I2704
sI2943
I1382
sI2944
I3139
sI2945
I2477
sI2946
I3367
sI2947
I2655
sI2948
I3487
sI2949
I2902
sI2950
I3732
sI2951
I210
sI2952
I2627
sI2953
I3667
sI2954
I1870
sI2955
I2751
sI2956
I1134
sI2957
I3765
sI2958
I3572
sI2959
I2799
sI2960
I619
sI2961
I2848
sI2962
I1598
sI2963
I3931
sI2964
I2992
sI2965
I1330
sI2966
I1335
sI2967
I3021
sI2968
I841
sI2969
I3058
sI2970
I3351
sI2971
I2636
sI2972
I2740
sI2973
I3488
sI2974
I2903
sI2975
I3573
sI2976
I2784
sI2977
I3833
sI2978
I3838
sI2979
I3692
sI2980
I2095
sI2981
I3339
sI2982
I2362
sI2983
I2388
sI2984
I3569
sI2985
I652
sI2986
I755
sI2987
I834
sI2988
I882
sI2989
I3345
sI2990
I2886
sI2991
I3777
sI2992
I1496
sI2993
I656
sI2994
I3119
sI2995
I3318
sI2996
I3335
sI2997
I3344
sI2998
I3346
sI2999
I2545
sI3000
I1743
sI3001
I1695
sI3002
I3490
sI3003
I3651
sI3004
I2855
sI3005
I1989
sI3006
I1990
sI3007
I2868
sI3008
I600
sI3009
I1165
sI3010
I1002
sI3011
I3372
sI3012
I840
sI3013
I865
sI3014
I867
sI3015
I2446
sI3016
I1679
sI3017
I1822
sI3018
I3531
sI3019
I3645
sI3020
I3669
sI3021
I1164
sI3022
I1362
sI3023
I3446
sI3024
I681
sI3025
I1332
sI3026
I2464
sI3027
I3276
sI3028
I3133
sI3029
I3310
sI3030
I3665
sI3031
I3781
sI3032
I1826
sI3033
I343
sI3034
I484
sI3035
I2219
sI3036
I2256
sI3037
I726
sI3038
I3106
sI3039
I2237
sI3040
I2521
sI3041
I2386
sI3042
I3289
sI3043
I3445
sI3044
I331
sI3045
I375
sI3046
I722
sI3047
I3894
sI3048
I1384
sI3049
I2673
sI3050
I2825
sI3051
I2843
sI3052
I1039
sI3053
I2933
sI3054
I1163
sI3055
I1525
sI3056
I3239
sI3057
I1490
sI3058
I3240
sI3059
I243
sI3060
I1798
sI3061
I470
sI3062
I1351
sI3063
I1511
sI3064
I2175
sI3065
I2281
sI3066
I2293
sI3067
I1651
sI3068
I3183
sI3069
I997
sI3070
I2620
sI3071
I1791
sI3072
I1006
sI3073
I335
sI3074
I422
sI3075
I75
sI3076
I2885
sI3077
I2400
sI3078
I1067
sI3079
I2733
sI3080
I1153
sI3081
I1383
sI3082
I2810
sI3083
I49
sI3084
I939
sI3085
I1817
sI3086
I1749
sI3087
I3670
sI3088
I124
sI3089
I1659
sI3090
I228
sI3091
I1773
sI3092
I2767
sI3093
I283
sI3094
I478
sI3095
I2298
sI3096
I881
sI3097
I3626
sI3098
I807
sI3099
I2055
sI3100
I2896
sI3101
I1906
sI3102
I96
sI3103
I1406
sI3104
I2063
sI3105
I3817
sI3106
I1149
sI3107
I1341
sI3108
I2465
sI3109
I2754
sI3110
I3637
sI3111
I2853
sI3112
I746
sI3113
I2618
sI3114
I3374
sI3115
I106
sI3116
I1809
sI3117
I1455
sI3118
I705
sI3119
I2715
sI3120
I1758
sI3121
I828
sI3122
I2837
sI3123
I626
sI3124
I1865
sI3125
I3739
sI3126
I2179
sI3127
I3293
sI3128
I3912
sI3129
I2074
sI3130
I1538
sI3131
I3790
sI3132
I3428
sI3133
I2847
sI3134
I2854
sI3135
I3832
sI3136
I3691
sI3137
I2128
sI3138
I1336
sI3139
I2326
sI3140
I2737
sI3141
I3721
sI3142
I2044
sI3143
I2982
sI3144
I2275
sI3145
I1837
sI3146
I1113
sI3147
I1133
sI3148
I347
sI3149
I1720
sI3150
I1440
sI3151
I578
sI3152
I3410
sI3153
I411
sI3154
I658
sI3155
I2931
sI3156
I2911
sI3157
I3892
sI3158
I3122
sI3159
I3143
sI3160
I3368
sI3161
I2481
sI3162
I2201
sI3163
I2342
sI3164
I1656
sI3165
I1312
sI3166
I1000
sI3167
I212
sI3168
I56
sI3169
I1412
sI3170
I462
sI3171
I121
sI3172
I3648
sI3173
I1893
sI3174
I716
sI3175
I2586
sI3176
I1579
sI3177
I2522
sI3178
I37
sI3179
I2487
sI3180
I3900
sI3181
I2056
sI3182
I2131
sI3183
I731
sI3184
I1447
sI3185
I2850
sI3186
I3805
sI3187
I1501
sI3188
I103
sI3189
I2778
sI3190
I1056
sI3191
I61
sI3192
I1903
sI3193
I2486
sI3194
I2834
sI3195
I200
sI3196
I270
sI3197
I1899
sI3198
I2158
sI3199
I3737
sI3200
I3875
sI3201
I1087
sI3202
I2743
sI3203
I114
sI3204
I3940
sI3205
I443
sI3206
I2211
sI3207
I2227
sI3208
I992
sI3209
I3291
sI3210
I3442
sI3211
I1853
sI3212
I2164
sI3213
I3313
sI3214
I2753
sI3215
I3632
sI3216
I3314
sI3217
I2658
sI3218
I3611
sI3219
I3878
sI3220
I888
sI3221
I1570
sI3222
I3759
sI3223
I3775
sI3224
I3848
sI3225
I402
sI3226
I3137
sI3227
I576
sI3228
I2631
sI3229
I297
sI3230
I1558
sI3231
I1565
sI3232
I3588
sI3233
I1549
sI3234
I1692
sI3235
I1168
sI3236
I2869
sI3237
I3862
sI3238
I3140
sI3239
I3944
sI3240
I2892
sI3241
I3866
sI3242
I3891
sI3243
I3899
sI3244
I1026
sI3245
I3025
sI3246
I3407
sI3247
I3463
sI3248
I1170
sI3249
I304
sI3250
I2452
sI3251
I2842
sI3252
I3223
sI3253
I1846
sI3254
I1567
sI3255
I136
sI3256
I3378
sI3257
I3232
sI3258
I1458
sI3259
I2466
sI3260
I2536
sI3261
I386
sI3262
I554
sI3263
I2200
sI3264
I850
sI3265
I545
sI3266
I1117
sI3267
I614
sI3268
I2577
sI3269
I167
sI3270
I2773
sI3271
I1040
sI3272
I385
sI3273
I3803
sI3274
I2593
sI3275
I2760
sI3276
I1696
sI3277
I2397
sI3278
I2756
sI3279
I3575
sI3280
I3845
sI3281
I3306
sI3282
I2207
sI3283
I1494
sI3284
I2509
sI3285
I3184
sI3286
I3647
sI3287
I2727
sI3288
I244
sI3289
I2304
sI3290
I2914
sI3291
I2960
sI3292
I2061
sI3293
I2317
sI3294
I2185
sI3295
I2187
sI3296
I1864
sI3297
I734
sI3298
I2215
sI3299
I1493
sI3300
I1829
sI3301
I2675
sI3302
I1151
sI3303
I2510
sI3304
I1793
sI3305
I3570
sI3306
I3026
sI3307
I2156
sI3308
I2251
sI3309
I3880
sI3310
I1668
sI3311
I1814
sI3312
I3495
sI3313
I1514
sI3314
I1561
sI3315
I3319
sI3316
I359
sI3317
I2945
sI3318
I310
sI3319
I925
sI3320
I1901
sI3321
I2578
sI3322
I59
sI3323
I3523
sI3324
I2283
sI3325
I2449
sI3326
I452
sI3327
I2244
sI3328
I397
sI3329
I2332
sI3330
I1575
sI3331
I756
sI3332
I2691
sI3333
I2813
sI3334
I2538
sI3335
I2191
sI3336
I792
sI3337
I3218
sI3338
I3402
sI3339
I3800
sI3340
I3850
sI3341
I3333
sI3342
I2981
sI3343
I821
sI3344
I220
sI3345
I1426
sI3346
I2350
sI3347
I2556
sI3348
I1144
sI3349
I2934
sI3350
I1622
sI3351
I1636
sI3352
I980
sI3353
I814
sI3354
I394
sI3355
I702
sI3356
I744
sI3357
I2246
sI3358
I1486
sI3359
I1154
sI3360
I1160
sI3361
I1504
sI3362
I2197
sI3363
I1574
sI3364
I33
sI3365
I3574
sI3366
I2775
sI3367
I389
sI3368
I1071
sI3369
I559
sI3370
I1671
sI3371
I3482
sI3372
I3126
sI3373
I1324
sI3374
I189
sI3375
I1174
sI3376
I1898
sI3377
I108
sI3378
I2758
sI3379
I3209
sI3380
I2192
sI3381
I1519
sI3382
I1098
sI3383
I1369
sI3384
I3151
sI3385
I1038
sI3386
I2923
sI3387
I3027
sI3388
I1433
sI3389
I3847
sI3390
I3757
sI3391
I3772
sI3392
I2257
sI3393
I3492
sI3394
I598
sI3395
I563
sI3396
I729
sI3397
I730
sI3398
I758
sI3399
I2233
sI3400
I2234
sI3401
I2441
sI3402
I245
sI3403
I1872
sI3404
I264
sI3405
I3636
sI3406
I1116
sI3407
I672
sI3408
I682
sI3409
I698
sI3410
I3116
sI3411
I862
sI3412
I2503
sI3413
I895
sI3414
I2557
sI3415
I2705
sI3416
I197
sI3417
I2765
sI3418
I53
sI3419
I526
sI3420
I90
sI3421
I567
sI3422
I962
sI3423
I618
sI3424
I2172
sI3425
I120
sI3426
I2209
sI3427
I703
sI3428
I3003
sI3429
I967
sI3430
I2814
sI3431
I2823
sI3432
I3486
sI3433
I3642
sI3434
I972
sI3435
I641
sI3436
I2608
sI3437
I1444
sI3438
I1850
sI3439
I3657
sI3440
I1138
sI3441
I2776
sI3442
I1436
sI3443
I769
sI3444
I985
sI3445
I1675
sI3446
I2576
sI3447
I3542
sI3448
I192
sI3449
I2127
sI3450
I887
sI3451
I712
sI3452
I2831
sI3453
I2358
sI3454
I1849
sI3455
I1121
sI3456
I1181
sI3457
I2562
sI3458
I3205
sI3459
I3644
sI3460
I401
sI3461
I2221
sI3462
I3131
sI3463
I3228
sI3464
I1315
sI3465
I864
sI3466
I219
sI3467
I3294
sI3468
I3305
sI3469
I3380
sI3470
I643
sI3471
I3419
sI3472
I2632
sI3473
I3888
sI3474
I823
sI3475
I2619
sI3476
I1877
sI3477
I3722
sI3478
I2101
sI3479
I2563
sI3480
I3905
sI3481
I853
sI3482
I3904
sI3483
I1548
sI3484
I1878
sI3485
I666
sI3486
I1360
sI3487
I1364
sI3488
I696
sI3489
I3517
sI3490
I2984
sI3491
I3601
sI3492
I3322
sI3493
I3303
sI3494
I3887
sI3495
I579
sI3496
I2235
sI3497
I789
sI3498
I796
sI3499
I3212
sI3500
I3216
sI3501
I2277
sI3502
I3220
sI3503
I1630
sI3504
I977
sI3505
I1652
sI3506
I2484
sI3507
I1852
sI3508
I3621
sI3509
I2821
sI3510
I3493
sI3511
I3641
sI3512
I1115
sI3513
I1118
sI3514
I601
sI3515
I3828
sI3516
I1142
sI3517
I1145
sI3518
I3687
sI3519
I2887
sI3520
I623
sI3521
I644
sI3522
I651
sI3523
I3876
sI3524
I660
sI3525
I1510
sI3526
I1386
sI3527
I859
sI3528
I3136
sI3529
I1553
sI3530
I3166
sI3531
I3312
sI3532
I1718
sI3533
I3321
sI3534
I142
sI3535
I1908
sI3536
I1764
sI3537
I2584
sI3538
I1787
sI3539
I2742
sI3540
I3778
sI3541
I3283
sI3542
I884
sI3543
I3085
sI3544
I1685
sI3545
I3748
sI3546
I1528
sI3547
I2591
sI3548
I3595
sI3549
I815
sI3550
I2254
sI3551
I2299
sI3552
I1520
sI3553
I775
sI3554
I1420
sI3555
I684
sI3556
I690
sI3557
I1534
sI3558
I3652
sI3559
I3277
sI3560
I3666
sI3561
I3522
sI3562
I3295
sI3563
I3377
sI3564
I557
sI3565
I1107
sI3566
I560
sI3567
I3458
sI3568
I706
sI3569
I2226
sI3570
I1815
sI3571
I2444
sI3572
I3353
sI3573
I3288
sI3574
I3352
sI3575
I1770
sI3576
I398
sI3577
I989
sI3578
I2783
sI3579
I1532
sI3580
I966
sI3581
I874
sI3582
I1886
sI3583
I2592
sI3584
I657
sI3585
I3890
sI3586
I2039
sI3587
I749
sI3588
I3818
sI3589
I582
sI3590
I642
sI3591
I3297
sI3592
I732
sI3593
I2930
sI3594
I3057
sI3595
I3472
sI3596
I130
sI3597
I139
sI3598
I2955
sI3599
I655
sI3600
I3485
sI3601
I790
sI3602
I1915
sI3603
I2833
sI3604
I1714
sI3605
I3207
sI3606
I3242
sI3607
I3533
sI3608
I1851
sI3609
I1830
sI3610
I3881
sI3611
I2777
sI3612
I3443
sI3613
I757
sI3614
I2895
sI3615
I889
sI3616
I1470
sI3617
I981
sI3618
I679
sI3619
I3373
sI3620
I872
sI3621
I3381
sI3622
I1555
sI3623
I3779
sI3624
I791
sI3625
I3609
sI3626
I1430
sI3627
I1724
sI3628
I2223
sI3629
I3233
sI3630
I3237
sI3631
I3762
sI3632
I3172
sI3633
I3065
sI3634
I3631
sI3635
I1139
sI3636
I3603
sI3637
I3842
sI3638
I572
sI3639
I2213
sI3640
I2217
sI3641
I3202
sI3642
I975
sI3643
I3376
sI3644
I311
sI3645
I1905
sI3646
I2258
sI3647
I2623
sI3648
I3236
sI3649
I396
sI3650
I868
sI3651
I3413
sI3652
I1316
sI3653
I878
sI3654
I226
sI3655
I2811
sI3656
I827
sI3657
I584
sI3658
I1820
sI3659
I607
sI3660
I701
sI3661
I2214
sI3662
I763
sI3663
I3229
sI3664
I820
sI3665
I3337
sI3666
I138
sI3667
I530
sI3668
I1070
sI3669
I843
sI3670
I3336
sI3671
I3460
sI3672
I3123
sI3673
I133
sI3674
I3290
sI3675
I1709
sI3676
I3164
sI3677
I3315
sI3678
I1832
sI3679
I439
sI3680
I134
sI3681
I2480
sI3682
I1842
sI3683
I2309
sI3684
I3084
sI3685
I2218
sI3686
I2308
sI3687
I624
sI3688
I1434
sI3689
I1868
sI3690
I404
sI3691
I2543
sI3692
I591
sI3693
I3656
sI3694
I2438
sI3695
I3323
sI3696
I127
sI3697
I3382
sI3698
I1843
sI3699
I286
sI3700
I3530
sI3701
I2198
sI3702
I2703
sI3703
I2845
sI3704
I3607
sI3705
I2909
s.