(dp1
I1
I40
sI2
I573
sI3
I1333
sI4
I450
sI5
I1334
sI6
I255
sI7
I576
sI8
I2163
sI9
I2143
sI10
I843
sI11
I1256
sI12
I2262
sI13
I1683
sI14
I490
sI15
I1850
sI16
I328
sI17
I417
sI18
I1958
sI19
I1851
sI20
I2427
sI21
I145
sI22
I1967
sI23
I1883
sI24
I359
sI25
I504
sI26
I1065
sI27
I2830
sI28
I1522
sI29
I364
sI30
I976
sI31
I2743
sI32
I376
sI33
I3364
sI34
I381
sI35
I1773
sI36
I383
sI37
I3178
sI38
I1375
sI39
I221
sI40
I2157
sI41
I239
sI42
I441
sI43
I2159
sI44
I1078
sI45
I1276
sI46
I1686
sI47
I242
sI48
I25
sI49
I3083
sI50
I259
sI52
I260
sI53
I3418
sI54
I1867
sI55
I1980
sI56
I3168
sI57
I2769
sI58
I453
sI59
I3322
sI60
I852
sI61
I3191
sI62
I704
sI63
I2265
sI64
I1404
sI65
I1219
sI66
I1719
sI67
I2820
sI68
I2600
sI69
I2235
sI70
I909
sI71
I2319
sI72
I2225
sI73
I478
sI74
I1414
sI75
I3075
sI76
I996
sI77
I2929
sI78
I2123
sI79
I2124
sI80
I2821
sI81
I1224
sI82
I2125
sI83
I2632
sI84
I2226
sI85
I821
sI86
I1097
sI87
I2201
sI88
I822
sI89
I1878
sI90
I3420
sI92
I1688
sI93
I1890
sI94
I1434
sI95
I130
sI96
I3102
sI97
I2493
sI98
I2656
sI99
I2730
sI100
I1926
sI101
I2417
sI102
I2878
sI103
I3188
sI104
I179
sI105
I481
sI106
I3115
sI107
I1737
sI108
I3377
sI110
I92
sI111
I486
sI112
I1226
sI113
I2053
sI114
I3203
sI116
I752
sI117
I2477
sI118
I1427
sI119
I2879
sI120
I3425
sI121
I3171
sI122
I1435
sI123
I1646
sI124
I3088
sI125
I1289
sI126
I1932
sI127
I3696
sI128
I2926
sI129
I2496
sI130
I3596
sI131
I2880
sI132
I2097
sI133
I3673
sI134
I3680
sI135
I1443
sI136
I3255
sI137
I2787
sI138
I3666
sI139
I3597
sI140
I1747
sI141
I871
sI142
I3534
sI144
I1459
sI145
I1173
sI146
I2195
sI147
I2481
sI148
I1937
sI149
I2858
sI150
I39
sI151
I448
sI152
I2646
sI153
I575
sI154
I1532
sI155
I1609
sI156
I2219
sI157
I1315
sI158
I1025
sI159
I1876
sI160
I878
sI161
I461
sI162
I276
sI163
I144
sI164
I955
sI165
I146
sI166
I2137
sI167
I3269
sI168
I1036
sI169
I2197
sI170
I1843
sI171
I2440
sI172
I1655
sI173
I1184
sI174
I2841
sI175
I1302
sI176
I298
sI177
I1945
sI178
I1656
sI179
I2596
sI180
I618
sI181
I2198
sI182
I2107
sI183
I2718
sI184
I1952
sI185
I1190
sI186
I621
sI187
I1252
sI188
I1954
sI189
I3374
sI190
I1956
sI191
I2842
sI192
I3448
sI193
I1957
sI194
I330
sI195
I1354
sI196
I1259
sI197
I3416
sI198
I970
sI199
I421
sI200
I3195
sI201
I2677
sI202
I370
sI203
I774
sI204
I2293
sI205
I1803
sI206
I2518
sI207
I1442
sI208
I776
sI209
I2615
sI210
I2951
sI211
I2480
sI212
I3167
sI213
I2517
sI214
I2629
sI215
I232
sI216
I787
sI217
I1325
sI218
I1748
sI219
I3466
sI220
I3344
sI222
I1024
sI223
I515
sI224
I252
sI225
I2099
sI226
I3654
sI227
I2550
sI228
I3090
sI229
I254
sI230
I459
sI231
I793
sI232
I1033
sI233
I1654
sI234
I1337
sI235
I141
sI236
I1338
sI237
I1339
sI238
I2196
sI239
I1842
sI240
I2171
sI241
I2399
sI242
I1944
sI243
I3059
sI244
I3288
sI245
I3402
sI246
I795
sI247
I958
sI248
I607
sI249
I796
sI250
I2933
sI251
I2375
sI252
I1345
sI253
I482
sI254
I2106
sI255
I2686
sI256
I1189
sI257
I886
sI258
I1695
sI259
I1953
sI260
I44
sI261
I1059
sI262
I1060
sI263
I2907
sI264
I3404
sI265
I109
sI266
I416
sI267
I1353
sI268
I1959
sI269
I494
sI270
I3196
sI271
I2616
sI272
I358
sI273
I2379
sI274
I2607
sI275
I658
sI276
I1360
sI277
I660
sI278
I1361
sI279
I2113
sI280
I1860
sI281
I1969
sI282
I513
sI283
I3093
sI286
I3699
sI287
I1774
sI288
I222
sI289
I1775
sI290
I1973
sI291
I1077
sI292
I79
sI293
I982
sI294
I2263
sI295
I2831
sI296
I244
sI297
I3229
sI298
I2224
sI299
I248
sI300
I520
sI301
I2765
sI302
I1032
sI303
I1300
sI304
I3249
sI305
I1756
sI306
I2483
sI307
I1942
sI308
I2569
sI309
I1943
sI310
I3318
sI311
I3644
sI312
I1183
sI313
I1043
sI314
I2039
sI315
I1342
sI316
I605
sI317
I606
sI318
I167
sI319
I957
sI320
I2571
sI321
I310
sI322
I1950
sI324
I2374
sI325
I2606
sI326
I1951
sI327
I1053
sI328
I2376
sI329
I619
sI330
I1132
sI331
I3044
sI332
I2377
sI333
I638
sI334
I1463
sI335
I3073
sI336
I1849
sI337
I491
sI338
I2555
sI339
I639
sI340
I972
sI341
I1965
sI342
I803
sI343
I3033
sI344
I657
sI345
I502
sI346
I1857
sI347
I3148
sI348
I361
sI349
I150
sI350
I1368
sI351
I674
sI352
I2618
sI353
I375
sI354
I2844
sI355
I1772
sI356
I171
sI357
I382
sI358
I1970
sI359
I3316
sI360
I1861
sI361
I1384
sI362
I2200
sI363
I2576
sI364
I390
sI365
I1974
sI366
I1817
sI367
I514
sI368
I83
sI369
I2768
sI370
I687
sI371
I1783
sI372
I1309
sI373
I2264
sI374
I1866
sI375
I3045
sI376
I1868
sI377
I264
sI378
I1395
sI379
I1715
sI380
I148
sI381
I1400
sI382
I1984
sI383
I397
sI384
I2465
sI385
I3272
sI386
I3261
sI387
I2433
sI388
I2770
sI389
I3367
sI390
I2253
sI391
I2581
sI392
I2024
sI393
I476
sI394
I3354
sI396
I3649
sI397
I3328
sI398
I3576
sI401
I3460
sI402
I3225
sI404
I3690
sI405
I1057
sI406
I2485
sI407
I2378
sI408
I2554
sI409
I2776
sI410
I1856
sI411
I3153
sI412
I353
sI413
I1357
sI414
I2843
sI415
I1966
sI416
I1358
sI417
I2222
sI418
I2112
sI419
I1858
sI420
I1137
sI421
I846
sI422
I3074
sI423
I1859
sI424
I1369
sI425
I1307
sI426
I2556
sI427
I1968
sI428
I550
sI429
I1203
sI430
I2845
sI431
I1273
sI432
I1382
sI433
I2846
sI434
I72
sI435
I683
sI436
I1972
sI437
I2114
sI438
I2251
sI439
I3679
sI440
I814
sI441
I815
sI442
I107
sI443
I3205
sI444
I2889
sI445
I1392
sI446
I986
sI447
I1784
sI448
I1979
sI449
I1671
sI450
I1398
sI451
I2120
sI452
I3326
sI453
I1869
sI454
I465
sI455
I1401
sI456
I1985
sI457
I151
sI458
I2432
sI459
I154
sI460
I2558
sI461
I299
sI462
I3170
sI463
I1410
sI464
I2175
sI465
I473
sI466
I1088
sI467
I1413
sI468
I1312
sI469
I1791
sI470
I3061
sI471
I1423
sI472
I1424
sI473
I1223
sI474
I433
sI475
I1096
sI476
I485
sI477
I2267
sI478
I3094
sI479
I2654
sI480
I113
sI481
I824
sI482
I1992
sI483
I2774
sI484
I3034
sI485
I1102
sI486
I1874
sI487
I1432
sI488
I2823
sI489
I1796
sI490
I1689
sI491
I1438
sI492
I1801
sI493
I1107
sI494
I1482
sI495
I2826
sI496
I1012
sI497
I369
sI498
I161
sI499
I1441
sI500
I900
sI501
I234
sI502
I2199
sI503
I981
sI504
I2782
sI505
I2888
sI506
I235
sI507
I1668
sI508
I439
sI509
I238
sI510
I449
sI511
I1390
sI512
I2501
sI513
I1863
sI514
I1864
sI515
I106
sI516
I1865
sI517
I850
sI518
I1391
sI519
I1978
sI520
I699
sI521
I1279
sI522
I1983
sI523
I2630
sI524
I463
sI525
I2819
sI526
I3419
sI527
I23
sI528
I1455
sI529
I525
sI530
I3667
sI531
I49
sI532
I1087
sI533
I1870
sI534
I1871
sI535
I2491
sI536
I2213
sI537
I2891
sI538
I475
sI539
I729
sI540
I1421
sI541
I743
sI542
I744
sI543
I745
sI544
I2435
sI545
I3265
sI546
I1094
sI547
I2784
sI548
I2502
sI549
I2514
sI550
I1429
sI551
I331
sI552
I193
sI553
I916
sI554
I3262
sI555
I495
sI556
I1287
sI557
I3564
sI558
I2203
sI559
I3369
sI560
I3566
sI561
I1997
sI562
I365
sI563
I3395
sI564
I2620
sI565
I1589
sI566
I1802
sI567
I3421
sI568
I2228
sI569
I427
sI570
I2898
sI571
I1892
sI572
I3638
sI573
I2748
sI574
I2470
sI575
I1822
sI576
I3227
sI577
I2181
sI578
I3151
sI579
I3495
sI580
I1896
sI581
I245
sI582
I3589
sI583
I2246
sI584
I3657
sI585
I1165
sI586
I566
sI587
I567
sI588
I33
sI589
I97
sI590
I123
sI591
I3692
sI592
I587
sI593
I128
sI594
I8
sI595
I10
sI596
I588
sI597
I396
sI598
I3394
sI599
I1824
sI600
I3008
sI601
I3514
sI602
I2631
sI603
I2434
sI605
I1408
sI606
I2391
sI607
I3659
sI608
I51
sI609
I1409
sI610
I1000
sI611
I1989
sI612
I1420
sI613
I2771
sI614
I3267
sI615
I2050
sI616
I1093
sI617
I1990
sI618
I3423
sI619
I2960
sI621
I2773
sI623
I3520
sI624
I3687
sI626
I3123
sI627
I2492
sI628
I917
sI630
I2129
sI631
I2206
sI632
I2824
sI633
I1800
sI634
I2207
sI635
I2825
sI637
I2146
sI638
I2605
sI639
I2621
sI640
I2132
sI641
I3435
sI642
I3590
sI643
I3470
sI644
I3521
sI645
I2469
sI647
I56
sI648
I58
sI649
I2471
sI650
I442
sI651
I3522
sI652
I2985
sI653
I187
sI655
I3599
sI656
I2993
sI657
I3584
sI658
I3154
sI659
I1238
sI660
I3524
sI661
I1
sI662
I2899
sI663
I791
sI664
I2070
sI665
I2472
sI666
I3485
sI667
I2290
sI668
I2473
sI669
I2691
sI670
I2626
sI671
I599
sI672
I3407
sI673
I1341
sI674
I1248
sI678
I1182
sI679
I3618
sI680
I2696
sI681
I3024
sI682
I3408
sI684
I3555
sI685
I2751
sI687
I2407
sI688
I1317
sI690
I3556
sI691
I1681
sI692
I2164
sI694
I1350
sI695
I2014
sI696
I3488
sI697
I1765
sI698
I3409
sI700
I2204
sI701
I3660
sI702
I3355
sI703
I3427
sI704
I2178
sI705
I3118
sI706
I3568
sI707
I1009
sI708
I828
sI709
I2208
sI710
I2848
sI711
I2209
sI712
I3451
sI714
I384
sI715
I2443
sI716
I3174
sI717
I2790
sI718
I1893
sI719
I1321
sI720
I21
sI722
I3046
sI724
I1328
sI725
I2793
sI726
I3037
sI728
I247
sI729
I3396
sI730
I3397
sI731
I3183
sI732
I3592
sI733
I195
sI734
I3297
sI735
I1898
sI736
I126
sI737
I1029
sI741
I468
sI742
I2402
sI743
I598
sI744
I3356
sI745
I29
sI746
I3112
sI747
I2789
sI748
I879
sI749
I3587
sI750
I611
sI751
I2922
sI753
I1759
sI754
I2244
sI755
I2986
sI756
I3331
sI757
I3613
sI758
I3398
sI759
I2585
sI760
I2536
sI761
I2779
sI762
I888
sI763
I3662
sI764
I802
sI765
I634
sI766
I1908
sI767
I2797
sI769
I3443
sI771
I1197
sI774
I2798
sI775
I3553
sI776
I2786
sI778
I542
sI779
I1684
sI780
I160
sI781
I2475
sI782
I2082
sI783
I35
sI784
I668
sI785
I1135
sI786
I1202
sI787
I2562
sI788
I808
sI789
I3497
sI790
I3601
sI791
I3624
sI792
I3336
sI793
I2505
sI796
I3498
sI798
I1207
sI799
I1208
sI800
I258
sI801
I2182
sI802
I581
sI803
I1611
sI804
I1335
sI805
I518
sI806
I2068
sI807
I3098
sI808
I2538
sI809
I2634
sI810
I2270
sI811
I2921
sI813
I830
sI814
I3353
sI815
I3549
sI818
I1180
sI820
I3664
sI821
I3343
sI823
I3474
sI824
I1616
sI826
I2248
sI827
I3656
sI828
I3121
sI829
I1827
sI830
I627
sI831
I2668
sI832
I887
sI833
I1193
sI834
I2987
sI835
I1828
sI836
I1829
sI837
I1594
sI838
I412
sI839
I1055
sI840
I3012
sI841
I2968
sI842
I1134
sI843
I3669
sI844
I2935
sI846
I1464
sI847
I1807
sI848
I2080
sI849
I1198
sI850
I3264
sI851
I2322
sI852
I1365
sI853
I3481
sI854
I2700
sI858
I669
sI859
I3527
sI860
I227
sI861
I430
sI862
I3411
sI863
I1632
sI864
I3465
sI865
I3013
sI866
I229
sI867
I3014
sI868
I3650
sI869
I2179
sI870
I2543
sI872
I3620
sI874
I3581
sI875
I2414
sI876
I2678
sI877
I2902
sI878
I3653
sI879
I1142
sI880
I1717
sI881
I3096
sI882
I2988
sI884
I3542
sI885
I2189
sI886
I1889
sI887
I3450
sI888
I3220
sI889
I3615
sI891
I1736
sI892
I2398
sI893
I1924
sI895
I3413
sI896
I295
sI897
I1701
sI898
I723
sI899
I726
sI900
I1761
sI901
I1460
sI902
I82
sI903
I1253
sI904
I629
sI905
I1448
sI906
I1461
sI907
I1544
sI908
I321
sI909
I1764
sI910
I1195
sI911
I1260
sI912
I420
sI913
I338
sI914
I2
sI915
I645
sI916
I648
sI917
I2862
sI918
I649
sI919
I9
sI920
I153
sI921
I1501
sI922
I1449
sI923
I661
sI924
I662
sI925
I3319
sI926
I665
sI927
I1556
sI928
I1465
sI929
I2083
sI930
I1451
sI931
I1561
sI932
I679
sI933
I1503
sI934
I832
sI935
I2526
sI936
I2305
sI937
I1778
sI938
I11
sI939
I3084
sI940
I1080
sI941
I2238
sI942
I985
sI943
I684
sI944
I2306
sI945
I1635
sI946
I1506
sI947
I1452
sI948
I1637
sI949
I1564
sI950
I1921
sI951
I1278
sI952
I851
sI953
I693
sI954
I694
sI955
I1454
sI956
I2087
sI957
I1510
sI958
I2925
sI959
I2034
sI960
I2090
sI961
I1514
sI962
I3422
sI963
I712
sI964
I2877
sI965
I1639
sI966
I3580
sI967
I3429
sI968
I294
sI969
I719
sI970
I2710
sI971
I736
sI972
I3434
sI973
I2147
sI974
I2092
sI975
I3642
sI976
I1702
sI977
I3504
sI978
I2035
sI980
I3352
sI981
I3617
sI982
I102
sI984
I2672
sI985
I3444
sI986
I823
sI987
I2593
sI988
I2759
sI989
I3577
sI990
I2168
sI991
I1838
sI992
I3208
sI993
I2260
sI994
I355
sI996
I1839
sI997
I3069
sI998
I2331
sI999
I835
sI1000
I3166
sI1002
I3010
sI1003
I1349
sI1004
I2173
sI1005
I1056
sI1006
I3072
sI1007
I413
sI1008
I2553
sI1009
I636
sI1010
I1852
sI1011
I1853
sI1012
I650
sI1013
I1062
sI1014
I1767
sI1015
I653
sI1016
I654
sI1017
I1553
sI1018
I1769
sI1019
I655
sI1020
I667
sI1021
I1367
sI1022
I37
sI1023
I670
sI1024
I2223
sI1025
I671
sI1026
I3244
sI1027
I511
sI1028
I45
sI1029
I46
sI1030
I388
sI1031
I680
sI1032
I682
sI1033
I1076
sI1034
I1206
sI1035
I14
sI1036
I210
sI1037
I1209
sI1038
I3385
sI1039
I3052
sI1040
I3271
sI1041
I1488
sI1042
I686
sI1043
I395
sI1044
I2737
sI1046
I257
sI1047
I1213
sI1049
I191
sI1050
I2117
sI1051
I1981
sI1053
I2464
sI1054
I1877
sI1055
I2579
sI1056
I3190
sI1057
I1311
sI1058
I2818
sI1059
I464
sI1060
I527
sI1061
I1577
sI1062
I2777
sI1063
I2442
sI1064
I1086
sI1066
I2049
sI1067
I3078
sI1068
I2728
sI1069
I995
sI1070
I3668
sI1071
I3368
sI1073
I741
sI1076
I2897
sI1077
I1001
sI1078
I1641
sI1079
I183
sI1080
I756
sI1081
I1644
sI1082
I2126
sI1083
I1795
sI1084
I111
sI1085
I1478
sI1086
I1582
sI1087
I3201
sI1088
I419
sI1089
I336
sI1090
I147
sI1091
I772
sI1092
I925
sI1093
I363
sI1094
I1106
sI1095
I366
sI1096
I152
sI1097
I26
sI1098
I3382
sI1099
I2130
sI1100
I1381
sI1101
I386
sI1102
I1809
sI1103
I61
sI1104
I681
sI1105
I2817
sI1107
I3565
sI1111
I2512
sI1112
I2252
sI1113
I3146
sI1114
I2910
sI1115
I3512
sI1116
I3406
sI1117
I3266
sI1118
I3513
sI1119
I2653
sI1120
I460
sI1121
I3455
sI1123
I2578
sI1124
I142
sI1125
I698
sI1126
I1083
sI1127
I277
sI1128
I2386
sI1129
I702
sI1130
I1576
sI1131
I2216
sI1132
I2727
sI1133
I3147
sI1134
I2956
sI1135
I727
sI1136
I206
sI1138
I3440
sI1139
I3635
sI1142
I3516
sI1144
I3348
sI1145
I3517
sI1147
I1673
sI1148
I535
sI1149
I3106
sI1150
I2911
sI1151
I3302
sI1152
I1581
sI1153
I3080
sI1154
I3359
sI1160
I3360
sI1161
I2128
sI1162
I1647
sI1163
I3054
sI1164
I3021
sI1165
I3009
sI1167
I2338
sI1168
I3235
sI1169
I2689
sI1170
I3248
sI1171
I379
sI1172
I1651
sI1173
I2000
sI1174
I3375
sI1175
I220
sI1176
I1483
sI1177
I1891
sI1178
I2231
sI1179
I945
sI1180
I1444
sI1181
I3456
sI1183
I1528
sI1184
I1895
sI1185
I950
sI1186
I1023
sI1187
I2161
sI1188
I88
sI1189
I1235
sI1190
I1897
sI1191
I261
sI1192
I262
sI1193
I0
sI1194
I2535
sI1196
I124
sI1197
I5
sI1198
I127
sI1199
I1241
sI1200
I714
sI1201
I215
sI1202
I2580
sI1203
I716
sI1204
I718
sI1205
I1220
sI1206
I994
sI1207
I47
sI1208
I1466
sI1209
I2122
sI1210
I64
sI1211
I1987
sI1212
I1283
sI1213
I67
sI1214
I209
sI1215
I740
sI1216
I855
sI1217
I71
sI1218
I1284
sI1219
I1158
sI1220
I755
sI1221
I434
sI1222
I1228
sI1223
I539
sI1224
I1467
sI1225
I105
sI1226
I1794
sI1227
I1286
sI1228
I2011
sI1230
I766
sI1231
I1586
sI1232
I2732
sI1233
I546
sI1234
I770
sI1235
I1517
sI1236
I2604
sI1237
I1457
sI1238
I2269
sI1240
I217
sI1241
I2052
sI1242
I1109
sI1243
I377
sI1244
I170
sI1245
I172
sI1246
I52
sI1247
I174
sI1248
I1231
sI1249
I1232
sI1250
I236
sI1251
I1605
sI1252
I559
sI1253
I77
sI1254
I560
sI1255
I2660
sI1256
I562
sI1257
I563
sI1258
I1115
sI1259
I84
sI1260
I2232
sI1261
I192
sI1262
I839
sI1263
I861
sI1264
I1612
sI1265
I116
sI1266
I194
sI1267
I1240
sI1268
I265
sI1269
I585
sI1270
I22
sI1271
I593
sI1272
I1539
sI1273
I2611
sI1274
I467
sI1275
I1041
sI1276
I597
sI1277
I469
sI1278
I600
sI1279
I285
sI1280
I1902
sI1281
I1496
sI1282
I609
sI1283
I610
sI1284
I960
sI1285
I1344
sI1286
I613
sI1287
I6
sI1288
I797
sI1289
I2503
sI1290
I1906
sI1291
I186
sI1292
I631
sI1293
I87
sI1294
I633
sI1295
I1543
sI1296
I411
sI1297
I1499
sI1298
I1347
sI1299
I1545
sI1300
I1584
sI1301
I1008
sI1302
I765
sI1303
I834
sI1304
I199
sI1305
I1995
sI1306
I1291
sI1307
I547
sI1310
I549
sI1311
I2027
sI1312
I3165
sI1313
I1294
sI1315
I3464
sI1316
I3652
sI1317
I2868
sI1320
I555
sI1321
I1111
sI1322
I2354
sI1323
I2744
sI1324
I3373
sI1325
I2346
sI1326
I2355
sI1327
I1114
sI1328
I2356
sI1329
I2357
sI1330
I2965
sI1331
I838
sI1332
I3025
sI1333
I1535
sI1334
I1119
sI1335
I2966
sI1336
I3138
sI1337
I1885
sI1339
I584
sI1340
I1128
sI1341
I3107
sI1342
I1899
sI1343
I523
sI1344
I1039
sI1345
I594
sI1346
I2836
sI1347
I1179
sI1348
I1540
sI1349
I2297
sI1350
I1130
sI1351
I3062
sI1352
I1901
sI1353
I1680
sI1354
I2474
sI1355
I2406
sI1356
I528
sI1357
I53
sI1358
I529
sI1359
I1826
sI1360
I3486
sI1361
I2627
sI1362
I3022
sI1363
I2077
sI1364
I3487
sI1365
I1907
sI1366
I2078
sI1367
I1054
sI1369
I3383
sI1370
I117
sI1371
I641
sI1372
I119
sI1373
I1133
sI1374
I643
sI1375
I644
sI1376
I646
sI1377
I647
sI1378
I196
sI1379
I197
sI1380
I426
sI1381
I1363
sI1382
I2943
sI1383
I3081
sI1384
I3048
sI1385
I157
sI1386
I3526
sI1387
I213
sI1388
I1267
sI1389
I2409
sI1390
I1378
sI1391
I1075
sI1392
I225
sI1393
I437
sI1394
I177
sI1395
I1666
sI1396
I896
sI1397
I2753
sI1398
I1777
sI1399
I2754
sI1401
I2067
sI1404
I2459
sI1405
I1177
sI1406
I3103
sI1407
I1118
sI1408
I110
sI1409
I583
sI1410
I2866
sI1411
I462
sI1412
I3169
sI1413
I2694
sI1414
I1757
sI1415
I2439
sI1416
I2141
sI1417
I1900
sI1419
I1615
sI1420
I3554
sI1421
I2029
sI1422
I883
sI1423
I2934
sI1425
I1186
sI1426
I3345
sI1427
I2861
sI1428
I959
sI1429
I300
sI1430
I3626
sI1431
I181
sI1432
I2076
sI1433
I3388
sI1434
I3688
sI1436
I3442
sI1437
I2256
sI1438
I1192
sI1439
I2460
sI1440
I3150
sI1441
I418
sI1442
I114
sI1444
I3437
sI1445
I2541
sI1446
I540
sI1447
I3184
sI1449
I342
sI1450
I2081
sI1453
I1770
sI1454
I2504
sI1455
I3117
sI1456
I2635
sI1457
I1364
sI1458
I3258
sI1459
I1831
sI1460
I2185
sI1461
I811
sI1463
I1377
sI1464
I1560
sI1465
I2637
sI1466
I226
sI1468
I1164
sI1470
I3616
sI1471
I2901
sI1472
I2461
sI1473
I2638
sI1474
I1834
sI1475
I2639
sI1476
I446
sI1477
I2085
sI1479
I849
sI1480
I1672
sI1482
I2757
sI1483
I1920
sI1484
I2896
sI1485
I274
sI1486
I3358
sI1487
I906
sI1488
I458
sI1489
I2188
sI1490
I3057
sI1493
I3299
sI1494
I3283
sI1495
I2190
sI1496
I2992
sI1497
I2640
sI1498
I818
sI1499
I1085
sI1500
I316
sI1501
I3187
sI1502
I2588
sI1503
I2796
sI1504
I3361
sI1507
I2304
sI1508
I2923
sI1509
I318
sI1510
I3525
sI1511
I3063
sI1513
I332
sI1514
I3313
sI1515
I2333
sI1516
I2560
sI1517
I335
sI1518
I1711
sI1519
I3381
sI1520
I3552
sI1522
I1910
sI1523
I2863
sI1525
I3055
sI1526
I1830
sI1527
I155
sI1528
I3546
sI1529
I367
sI1531
I2864
sI1532
I3579
sI1533
I2900
sI1534
I3557
sI1535
I224
sI1537
I55
sI1538
I3130
sI1539
I2589
sI1541
I1386
sI1542
I2299
sI1543
I2476
sI1544
I86
sI1545
I28
sI1546
I813
sI1547
I2756
sI1548
I3483
sI1549
I3233
sI1550
I2828
sI1551
I2186
sI1552
I125
sI1553
I3529
sI1554
I271
sI1555
I3622
sI1556
I1396
sI1558
I3230
sI1561
I3314
sI1562
I1084
sI1563
I817
sI1564
I2592
sI1565
I3231
sI1566
I32
sI1567
I3254
sI1569
I400
sI1570
I3221
sI1571
I1792
sI1572
I2709
sI1573
I432
sI1574
I3363
sI1575
I3330
sI1579
I3176
sI1580
I189
sI1581
I2608
sI1582
I2191
sI1583
I750
sI1584
I538
sI1585
I2904
sI1586
I753
sI1587
I857
sI1588
I1426
sI1589
I488
sI1590
I1723
sI1591
I1103
sI1592
I2193
sI1593
I1436
sI1594
I351
sI1595
I2276
sI1596
I2307
sI1597
I137
sI1598
I2962
sI1599
I2291
sI1600
I1771
sI1601
I977
sI1602
I1833
sI1603
I1664
sI1604
I2636
sI1605
I2274
sI1606
I1074
sI1608
I895
sI1609
I1914
sI1610
I78
sI1611
I1915
sI1612
I2590
sI1613
I2669
sI1614
I983
sI1615
I185
sI1616
I1670
sI1617
I246
sI1619
I904
sI1620
I1687
sI1621
I451
sI1622
I3350
sI1623
I1918
sI1624
I987
sI1625
I905
sI1626
I2780
sI1627
I1919
sI1629
I2086
sI1630
I3503
sI1631
I2704
sI1632
I1787
sI1633
I706
sI1635
I284
sI1636
I3351
sI1639
I470
sI1640
I1412
sI1641
I176
sI1642
I2849
sI1643
I303
sI1644
I910
sI1645
I911
sI1646
I2827
sI1647
I2462
sI1648
I1928
sI1649
I309
sI1650
I320
sI1651
I3067
sI1652
I3505
sI1653
I322
sI1654
I749
sI1655
I1160
sI1656
I3164
sI1657
I1489
sI1658
I1707
sI1659
I3089
sI1660
I496
sI1661
I2335
sI1662
I2463
sI1663
I1313
sI1664
I2905
sI1665
I826
sI1666
I1798
sI1667
I2537
sI1668
I3310
sI1669
I543
sI1670
I2497
sI1671
I3370
sI1672
I926
sI1673
I509
sI1674
I428
sI1675
I3445
sI1676
I775
sI1677
I1804
sI1678
I510
sI1679
I3016
sI1680
I1526
sI1681
I2294
sI1682
I438
sI1683
I228
sI1684
I230
sI1685
I3544
sI1686
I1936
sI1687
I66
sI1688
I389
sI1689
I1174
sI1690
I98
sI1692
I3234
sI1693
I447
sI1694
I1163
sI1695
I3001
sI1696
I3276
sI1699
I1533
sI1701
I466
sI1702
I907
sI1703
I1402
sI1704
I280
sI1707
I2136
sI1709
I3675
sI1711
I474
sI1713
I1411
sI1714
I3604
sI1715
I302
sI1717
I1155
sI1718
I3532
sI1719
I306
sI1720
I3149
sI1721
I27
sI1722
I319
sI1724
I3627
sI1725
I2758
sI1726
I1930
sI1727
I2093
sI1728
I2681
sI1729
I324
sI1730
I339
sI1731
I2054
sI1732
I343
sI1733
I344
sI1734
I346
sI1735
I498
sI1739
I1104
sI1741
I2804
sI1743
I3000
sI1744
I2643
sI1746
I2838
sI1747
I371
sI1748
I1014
sI1749
I3086
sI1750
I2277
sI1752
I1840
sI1753
I786
sI1754
I1172
sI1755
I2325
sI1756
I554
sI1758
I3120
sI1759
I233
sI1760
I1607
sI1762
I1841
sI1764
I3536
sI1767
I2595
sI1769
I1939
sI1770
I3575
sI1771
I2647
sI1772
I1125
sI1773
I3091
sI1777
I521
sI1779
I954
sI1780
I2507
sI1782
I1758
sI1783
I882
sI1784
I164
sI1785
I1470
sI1787
I3538
sI1788
I297
sI1791
I3071
sI1792
I65
sI1793
I3304
sI1794
I314
sI1795
I2812
sI1796
I2813
sI1797
I1845
sI1798
I3060
sI1799
I1188
sI1801
I118
sI1804
I920
sI1805
I921
sI1806
I422
sI1807
I2419
sI1809
I3116
sI1810
I507
sI1811
I2761
sI1812
I2622
sI1814
I3311
sI1815
I3570
sI1816
I1934
sI1817
I3085
sI1820
I3658
sI1821
I1745
sI1822
I3017
sI1824
I2314
sI1825
I2742
sI1826
I3032
sI1827
I1653
sI1829
I3300
sI1830
I3609
sI1831
I564
sI1832
I3678
sI1833
I1332
sI1834
I95
sI1835
I1592
sI1836
I36
sI1837
I3145
sI1839
I2882
sI1840
I456
sI1841
I2421
sI1842
I3682
sI1843
I3698
sI1844
I2807
sI1845
I1243
sI1846
I3253
sI1848
I1941
sI1849
I3454
sI1850
I3438
sI1851
I3608
sI1852
I3507
sI1853
I3211
sI1854
I2840
sI1855
I2468
sI1856
I2508
sI1857
I2883
sI1858
I2172
sI1859
I2484
sI1860
I2345
sI1861
I1948
sI1862
I2020
sI1863
I2884
sI1864
I3296
sI1865
I3124
sI1866
I2648
sI1867
I2811
sI1868
I3689
sI1869
I2650
sI1870
I2954
sI1871
I2221
sI1872
I3403
sI1873
I103
sI1874
I2834
sI1875
I1659
sI1876
I1058
sI1877
I3476
sI1878
I3484
sI1879
I2441
sI1880
I1356
sI1881
I2283
sI1882
I1063
sI1883
I890
sI1884
I356
sI1885
I357
sI1886
I3582
sI1887
I804
sI1888
I1359
sI1889
I2449
sI1890
I2428
sI1891
I2814
sI1892
I894
sI1893
I3173
sI1894
I1685
sI1895
I1595
sI1896
I2597
sI1897
I378
sI1898
I3376
sI1899
I3197
sI1900
I2482
sI1901
I3320
sI1902
I2645
sI1903
I3192
sI1904
I2156
sI1905
I3645
sI1906
I3101
sI1907
I34
sI1908
I3535
sI1909
I251
sI1910
I2568
sI1911
I932
sI1912
I272
sI1913
I1940
sI1914
I1755
sI1915
I3602
sI1916
I457
sI1917
I133
sI1918
I590
sI1919
I2145
sI1920
I1316
sI1921
I288
sI1922
I1486
sI1923
I290
sI1924
I1710
sI1925
I2336
sI1926
I2152
sI1927
I602
sI1928
I2682
sI1929
I2308
sI1930
I2684
sI1931
I1844
sI1932
I2509
sI1933
I2685
sI1934
I2104
sI1935
I2040
sI1936
I2309
sI1937
I1498
sI1938
I2105
sI1939
I2148
sI1940
I2310
sI1941
I2523
sI1942
I2337
sI1943
I2687
sI1944
I1847
sI1945
I101
sI1946
I1549
sI1947
I414
sI1948
I637
sI1949
I1624
sI1950
I1963
sI1951
I2043
sI1952
I1730
sI1953
I136
sI1954
I139
sI1955
I140
sI1956
I1064
sI1957
I143
sI1958
I1264
sI1959
I425
sI1960
I1070
sI1961
I41
sI1962
I42
sI1963
I1663
sI1964
I1628
sI1965
I1270
sI1966
I373
sI1967
I673
sI1968
I168
sI1969
I1808
sI1970
I1810
sI1971
I1811
sI1972
I1812
sI1973
I1813
sI1974
I1141
sI1975
I1814
sI1976
I1505
sI1977
I1679
sI1978
I1815
sI1979
I1816
sI1980
I1818
sI1981
I1819
sI1982
I868
sI1983
I1732
sI1984
I1733
sI1985
I1734
sI1986
I1735
sI1987
I2382
sI1988
I2383
sI1989
I3005
sI1990
I3006
sI1991
I1217
sI1992
I2385
sI1993
I2387
sI1994
I1149
sI1995
I2352
sI1996
I2388
sI1997
I431
sI1998
I2623
sI1999
I2389
sI2000
I711
sI2001
I713
sI2002
I163
sI2003
I715
sI2004
I1153
sI2005
I717
sI2006
I166
sI2007
I1884
sI2008
I2928
sI2009
I724
sI2010
I998
sI2011
I737
sI2012
I738
sI2013
I311
sI2014
I1090
sI2015
I739
sI2016
I1872
sI2017
I408
sI2018
I17
sI2019
I1092
sI2020
I1098
sI2021
I754
sI2022
I2633
sI2023
I489
sI2024
I2230
sI2025
I1099
sI2026
I2392
sI2027
I1692
sI2028
I48
sI2029
I329
sI2031
I2893
sI2032
I2894
sI2033
I768
sI2034
I1724
sI2035
I2665
sI2036
I2205
sI2037
I1799
sI2038
I1996
sI2039
I3586
sI2040
I778
sI2041
I779
sI2042
I1108
sI2043
I781
sI2044
I3142
sI2045
I782
sI2046
I783
sI2047
I784
sI2048
I2289
sI2049
I785
sI2050
I1823
sI2051
I2869
sI2052
I1021
sI2053
I1326
sI2054
I558
sI2055
I3099
sI2056
I3181
sI2057
I2012
sI2058
I240
sI2059
I1327
sI2060
I2255
sI2061
I3292
sI2062
I2913
sI2063
I3104
sI2064
I1120
sI2065
I1492
sI2066
I1446
sI2067
I115
sI2068
I2625
sI2069
I2069
sI2070
I279
sI2071
I1538
sI2072
I592
sI2073
I2268
sI2074
I3129
sI2075
I2919
sI2076
I794
sI2077
I595
sI2078
I596
sI2079
I2073
sI2080
I608
sI2081
I207
sI2082
I401
sI2083
I1045
sI2084
I2272
sI2085
I1046
sI2086
I2539
sI2087
I612
sI2088
I1617
sI2089
I1047
sI2090
I624
sI2091
I626
sI2092
I2183
sI2093
I628
sI2094
I630
sI2095
I2980
sI2096
I632
sI2097
I1728
sI2098
I2342
sI2099
I2350
sI2100
I424
sI2101
I3478
sI2102
I2286
sI2103
I1161
sI2104
I2395
sI2105
I767
sI2106
I827
sI2107
I1743
sI2108
I769
sI2109
I771
sI2110
I1744
sI2111
I777
sI2112
I1998
sI2113
I2397
sI2114
I1999
sI2115
I205
sI2116
I1016
sI2117
I1017
sI2118
I1295
sI2119
I1296
sI2120
I1894
sI2121
I2353
sI2122
I1175
sI2123
I1020
sI2124
I556
sI2125
I557
sI2126
I73
sI2127
I3449
sI2128
I3137
sI2129
I2856
sI2130
I2066
sI2131
I3182
sI2132
I1299
sI2133
I577
sI2134
I1176
sI2135
I578
sI2136
I579
sI2137
I580
sI2138
I582
sI2139
I1027
sI2140
I591
sI2141
I1034
sI2142
I1035
sI2143
I1037
sI2144
I1301
sI2145
I1038
sI2146
I1340
sI2147
I2028
sI2148
I1245
sI2149
I1246
sI2150
I1185
sI2151
I2870
sI2152
I1825
sI2153
I1044
sI2154
I1343
sI2155
I1657
sI2156
I3307
sI2157
I2247
sI2158
I3198
sI2159
I301
sI2160
I1131
sI2161
I622
sI2162
I1904
sI2163
I1191
sI2164
I3212
sI2165
I1905
sI2166
I536
sI2167
I188
sI2168
I1762
sI2169
I2273
sI2170
I2165
sI2171
I1625
sI2172
I3424
sI2173
I969
sI2174
I642
sI2175
I3064
sI2176
I1261
sI2177
I2079
sI2178
I1552
sI2179
I3126
sI2180
I2699
sI2181
I2334
sI2182
I2347
sI2183
I1555
sI2184
I2015
sI2185
I3294
sI2186
I1450
sI2187
I3295
sI2188
I368
sI2189
I1201
sI2190
I2257
sI2191
I3335
sI2192
I3380
sI2193
I678
sI2194
I57
sI2195
I1140
sI2196
I2166
sI2197
I3362
sI2198
I3701
sI2200
I3263
sI2201
I3162
sI2202
I1239
sI2203
I2300
sI2204
I2302
sI2205
I1752
sI2206
I1534
sI2207
I3282
sI2208
I1491
sI2209
I3426
sI2210
I2303
sI2211
I3206
sI2212
I2071
sI2213
I3639
sI2214
I3661
sI2215
I3298
sI2217
I3640
sI2218
I3685
sI2219
I3035
sI2221
I3461
sI2223
I3628
sI2226
I3569
sI2227
I3207
sI2231
I2343
sI2232
I1903
sI2233
I3399
sI2234
I3400
sI2235
I3496
sI2236
I80
sI2237
I3039
sI2238
I1620
sI2239
I1621
sI2240
I2540
sI2241
I1257
sI2242
I2408
sI2243
I865
sI2244
I3327
sI2245
I1304
sI2246
I3357
sI2247
I1355
sI2248
I1061
sI2249
I1196
sI2250
I1661
sI2251
I3308
sI2252
I659
sI2253
I1066
sI2254
I3550
sI2255
I2612
sI2256
I3036
sI2257
I3392
sI2258
I3646
sI2259
I1266
sI2260
I2410
sI2261
I1374
sI2262
I1376
sI2263
I1204
sI2264
I1912
sI2265
I1205
sI2266
I1379
sI2267
I2411
sI2268
I59
sI2269
I1380
sI2271
I2734
sI2272
I902
sI2273
I903
sI2275
I3144
sI2276
I2755
sI2277
I3501
sI2278
I93
sI2279
I2259
sI2280
I2344
sI2281
I3065
sI2282
I269
sI2283
I3324
sI2284
I2447
sI2285
I2330
sI2286
I2875
sI2287
I989
sI2288
I990
sI2289
I275
sI2290
I2089
sI2291
I283
sI2292
I1788
sI2293
I3066
sI2294
I30
sI2295
I2613
sI2296
I1152
sI2297
I472
sI2298
I3095
sI2299
I3551
sI2300
I617
sI2301
I1303
sI2302
I534
sI2303
I1542
sI2304
I3289
sI2305
I2795
sI2306
I801
sI2307
I2853
sI2308
I3686
sI2309
I3683
sI2310
I2008
sI2311
I968
sI2312
I108
sI2313
I1352
sI2314
I492
sI2315
I1909
sI2316
I640
sI2317
I3293
sI2318
I334
sI2320
I503
sI2321
I20
sI2322
I1265
sI2323
I362
sI2324
I505
sI2325
I805
sI2326
I3139
sI2327
I2361
sI2328
I1911
sI2329
I506
sI2330
I2628
sI2331
I1630
sI2332
I3329
sI2333
I219
sI2334
I1665
sI2335
I810
sI2336
I435
sI2337
I223
sI2338
I1139
sI2339
I1776
sI2340
I24
sI2341
I2084
sI2342
I3163
sI2343
I2413
sI2344
I1562
sI2345
I2874
sI2346
I984
sI2347
I2249
sI2348
I1079
sI2349
I1917
sI2350
I3346
sI2351
I2702
sI2352
I1310
sI2353
I120
sI2354
I2187
sI2355
I4
sI2356
I1786
sI2357
I2180
sI2358
I3453
sI2359
I129
sI2360
I2516
sI2361
I2494
sI2362
I2982
sI2363
I1474
sI2364
I2016
sI2365
I2017
sI2366
I212
sI2367
I1151
sI2368
I2363
sI2369
I941
sI2370
I854
sI2371
I730
sI2372
I2679
sI2373
I1089
sI2374
I1222
sI2375
I734
sI2376
I1156
sI2377
I997
sI2378
I735
sI2379
I1600
sI2380
I1601
sI2381
I2418
sI2382
I1602
sI2383
I1603
sI2384
I323
sI2385
I1642
sI2386
I3041
sI2387
I913
sI2388
I2983
sI2389
I914
sI2390
I345
sI2391
I922
sI2392
I943
sI2393
I762
sI2394
I923
sI2395
I350
sI2396
I134
sI2397
I3277
sI2398
I12
sI2399
I764
sI2400
I3077
sI2401
I1832
sI2402
I1072
sI2403
I1371
sI2404
I1073
sI2405
I675
sI2406
I385
sI2407
I676
sI2408
I1714
sI2409
I1271
sI2410
I1274
sI2411
I1275
sI2412
I1385
sI2413
I1211
sI2414
I848
sI2415
I1780
sI2416
I1212
sI2417
I1781
sI2418
I1388
sI2419
I1277
sI2420
I1393
sI2421
I1081
sI2422
I1082
sI2423
I688
sI2424
I690
sI2425
I2799
sI2426
I1785
sI2427
I122
sI2428
I268
sI2429
I455
sI2430
I1700
sI2431
I703
sI2432
I1599
sI2433
I908
sI2434
I2154
sI2435
I2088
sI2436
I707
sI2437
I282
sI2438
I3694
sI2439
I2155
sI2440
I2708
sI2441
I3401
sI2442
I477
sI2443
I1790
sI2444
I3571
sI2445
I2829
sI2446
I3015
sI2447
I1416
sI2448
I2167
sI2449
I3325
sI2450
I1095
sI2451
I2365
sI2452
I3250
sI2453
I747
sI2454
I1004
sI2455
I1005
sI2456
I1722
sI2457
I2094
sI2458
I2466
sI2459
I1425
sI2460
I1739
sI2461
I1740
sI2462
I1741
sI2463
I1433
sI2464
I3026
sI2465
I3108
sI2466
I3259
sI2467
I1583
sI2468
I1797
sI2469
I423
sI2470
I200
sI2471
I1604
sI2472
I2096
sI2473
I1440
sI2474
I1649
sI2475
I2745
sI2476
I2292
sI2477
I2945
sI2478
I1230
sI2479
I2762
sI2480
I3681
sI2481
I3161
sI2482
I2594
sI2483
I2806
sI2484
I3506
sI2485
I870
sI2486
I3193
sI2487
I3179
sI2488
I2712
sI2490
I94
sI2491
I1750
sI2492
I1751
sI2493
I2763
sI2494
I2549
sI2495
I2519
sI2496
I571
sI2497
I572
sI2498
I574
sI2499
I2218
sI2500
I1886
sI2501
I149
sI2502
I1150
sI2503
I3412
sI2504
I2670
sI2505
I2135
sI2506
I398
sI2507
I816
sI2509
I3284
sI2510
I3303
sI2511
I1282
sI2512
I2707
sI2513
I2671
sI2514
I2641
sI2515
I2364
sI2516
I2642
sI2517
I1925
sI2518
I2416
sI2519
I2236
sI2520
I1721
sI2521
I3040
sI2522
I3177
sI2523
I1821
sI2524
I1703
sI2525
I2366
sI2526
I1002
sI2527
I1003
sI2528
I856
sI2529
I748
sI2530
I759
sI2531
I1836
sI2532
I1837
sI2533
I1007
sI2534
I1480
sI2535
I2317
sI2536
I3260
sI2537
I1705
sI2538
I3334
sI2539
I825
sI2540
I1677
sI2541
I508
sI2542
I1011
sI2543
I3691
sI2544
I1490
sI2545
I2999
sI2546
I1708
sI2548
I2644
sI2549
I1013
sI2550
I1458
sI2551
I2420
sI2552
I2747
sI2553
I946
sI2554
I947
sI2555
I927
sI2556
I3347
sI2557
I3414
sI2558
I1324
sI2559
I2194
sI2560
I250
sI2561
I2448
sI2562
I3457
sI2563
I3479
sI2565
I1531
sI2566
I2278
sI2567
I874
sI2568
I930
sI2569
I2915
sI2570
I2529
sI2571
I132
sI2572
I862
sI2573
I1031
sI2574
I1124
sI2575
I1614
sI2576
I3446
sI2577
I3268
sI2578
I3321
sI2579
I2715
sI2580
I291
sI2581
I881
sI2582
I2261
sI2583
I2055
sI2584
I3537
sI2585
I2809
sI2586
I3175
sI2587
I2683
sI2589
I2850
sI2590
I2736
sI2591
I3547
sI2592
I3583
sI2593
I3274
sI2594
I2572
sI2596
I2138
sI2597
I2649
sI2598
I800
sI2599
I315
sI2600
I493
sI2602
I2803
sI2605
I919
sI2606
I1931
sI2607
I341
sI2608
I3436
sI2609
I2478
sI2610
I2760
sI2611
I1648
sI2612
I1588
sI2613
I1010
sI2614
I2781
sI2615
I2019
sI2616
I836
sI2617
I202
sI2618
I3113
sI2619
I3475
sI2620
I3070
sI2621
I2567
sI2622
I551
sI2623
I3647
sI2624
I2805
sI2625
I2169
sI2626
I2544
sI2627
I2952
sI2628
I60
sI2629
I928
sI2630
I2713
sI2631
I3228
sI2632
I3472
sI2633
I1116
sI2634
I2368
sI2635
I2369
sI2636
I2971
sI2637
I1530
sI2638
I1117
sI2639
I789
sI2640
I586
sI2641
I840
sI2642
I1242
sI2643
I934
sI2644
I1121
sI2645
I2370
sI2646
I1122
sI2647
I1123
sI2648
I1126
sI2649
I1127
sI2650
I1541
sI2651
I2839
sI2652
I2371
sI2653
I1129
sI2654
I2467
sI2655
I2947
sI2656
I2662
sI2657
I603
sI2658
I3217
sI2659
I2717
sI2660
I961
sI2661
I962
sI2662
I615
sI2663
I963
sI2664
I964
sI2665
I2373
sI2666
I2663
sI2667
I965
sI2668
I966
sI2669
I1694
sI2670
I2042
sI2671
I1194
sI2672
I2139
sI2673
I3049
sI2674
I1548
sI2675
I3301
sI2676
I889
sI2677
I1682
sI2678
I2140
sI2679
I2766
sI2681
I1713
sI2682
I1626
sI2683
I352
sI2685
I2886
sI2686
I500
sI2687
I16
sI2688
I501
sI2689
I2722
sI2690
I2153
sI2691
I3332
sI2692
I43
sI2693
I672
sI2694
I866
sI2695
I2851
sI2696
I2486
sI2697
I2487
sI2699
I512
sI2700
I243
sI2701
I929
sI2702
I445
sI2703
I3702
sI2704
I2942
sI2705
I3415
sI2706
I788
sI2707
I873
sI2708
I1606
sI2709
I1314
sI2710
I790
sI2711
I2764
sI2712
I454
sI2713
I931
sI2714
I2280
sI2715
I3119
sI2716
I273
sI2717
I131
sI2718
I1030
sI2719
I877
sI2720
I935
sI2721
I286
sI2722
I936
sI2723
I287
sI2724
I880
sI2725
I289
sI2726
I1249
sI2727
I3287
sI2728
I162
sI2729
I2102
sI2730
I2570
sI2731
I863
sI2732
I1618
sI2733
I3079
sI2734
I308
sI2735
I180
sI2736
I2372
sI2737
I3140
sI2738
I1760
sI2739
I1049
sI2740
I2972
sI2741
I2424
sI2742
I3539
sI2743
I3202
sI2744
I2021
sI2745
I2425
sI2746
I635
sI2747
I1500
sI2748
I1697
sI2749
I2426
sI2750
I1962
sI2751
I2955
sI2752
I971
sI2753
I3214
sI2754
I3109
sI2755
I2111
sI2756
I3278
sI2757
I1305
sI2758
I3378
sI2759
I354
sI2760
I3275
sI2761
I939
sI2762
I38
sI2763
I891
sI2764
I893
sI2765
I3417
sI2766
I809
sI2767
I3092
sI2768
I2815
sI2769
I2450
sI2770
I231
sI2771
I2215
sI2772
I1690
sI2773
I3270
sI2774
I1667
sI2775
I3366
sI2776
I3441
sI2777
I3611
sI2778
I3189
sI2779
I1383
sI2780
I1508
sI2781
I1976
sI2782
I1143
sI2783
I3578
sI2784
I2976
sI2785
I2860
sI2786
I2005
sI2787
I1977
sI2788
I2003
sI2789
I1144
sI2790
I1147
sI2791
I15
sI2792
I1216
sI2793
I1982
sI2794
I1218
sI2795
I701
sI2796
I1598
sI2797
I19
sI2798
I1399
sI2799
I2959
sI2800
I1167
sI2801
I2530
sI2802
I404
sI2803
I2144
sI2804
I7
sI2805
I937
sI2806
I307
sI2807
I1048
sI2808
I1250
sI2809
I2867
sI2810
I3082
sI2811
I3655
sI2812
I2573
sI2813
I3333
sI2814
I3430
sI2815
I1658
sI2816
I1696
sI2817
I1547
sI2818
I2295
sI2819
I2109
sI2820
I2110
sI2821
I3509
sI2822
I844
sI2823
I3431
sI2824
I2720
sI2825
I3050
sI2826
I651
sI2827
I1855
sI2828
I938
sI2829
I1768
sI2830
I2723
sI2831
I3452
sI2833
I3603
sI2834
I3194
sI2835
I2652
sI2836
I1136
sI2837
I3122
sI2839
I2917
sI2840
I897
sI2841
I898
sI2842
I3251
sI2843
I3051
sI2844
I2816
sI2845
I3703
sI2846
I1731
sI2847
I3133
sI2848
I2961
sI2849
I1779
sI2850
I3185
sI2851
I1975
sI2852
I100
sI2853
I3111
sI2854
I3134
sI2855
I3004
sI2856
I940
sI2857
I1862
sI2858
I104
sI2859
I2577
sI2860
I1146
sI2861
I2237
sI2862
I2531
sI2863
I696
sI2864
I2726
sI2865
I2835
sI2866
I2431
sI2867
I1570
sI2868
I3007
sI2869
I3236
sI2870
I1515
sI2871
I204
sI2872
I720
sI2873
I2229
sI2874
I725
sI2875
I1407
sI2876
I2284
sI2877
I2327
sI2878
I2390
sI2879
I2174
sI2880
I2266
sI2881
I69
sI2882
I912
sI2883
I819
sI2884
I1793
sI2885
I3076
sI2886
I2990
sI2887
I3519
sI2888
I942
sI2889
I2847
sI2890
I326
sI2891
I2025
sI2892
I3240
sI2893
I1100
sI2894
I2785
sI2895
I3614
sI2896
I3100
sI2897
I2931
sI2898
I2655
sI2899
I2202
sI2900
I2895
sI2901
I974
sI2902
I2949
sI2903
I2974
sI2904
I2311
sI2905
I2617
sI2906
I1366
sI2907
I807
sI2908
I372
sI2909
I3705
sI2911
I3156
sI2912
I979
sI2913
I2142
sI2914
I3290
sI2915
I1308
sI2916
I62
sI2917
I1272
sI2918
I13
sI2919
I1633
sI2920
I867
sI2921
I1563
sI2922
I1507
sI2923
I3386
sI2924
I2234
sI2925
I2488
sI2926
I1566
sI2927
I2254
sI2928
I2430
sI2929
I2149
sI2930
I3593
sI2931
I3155
sI2932
I1569
sI2933
I3053
sI2934
I3349
sI2935
I1511
sI2936
I1512
sI2937
I2313
sI2938
I2315
sI2939
I2119
sI2940
I2121
sI2941
I1575
sI2942
I1406
sI2943
I165
sI2944
I1475
sI2945
I3317
sI2946
I722
sI2947
I216
sI2948
I728
sI2949
I1154
sI2950
I1417
sI2951
I208
sI2952
I313
sI2953
I1091
sI2955
I3598
sI2956
I1988
sI2959
I317
sI2960
I3291
sI2961
I915
sI2962
I2603
sI2963
I2772
sI2964
I2912
sI2965
I1873
sI2966
I415
sI2967
I757
sI2968
I758
sI2969
I1645
sI2970
I2731
sI2971
I2227
sI2972
I1676
sI2973
I1292
sI2974
I2657
sI2975
I944
sI2976
I869
sI2977
I2619
sI2978
I2288
sI2979
I2160
sI2981
I3342
sI2982
I3143
sI2983
I1591
sI2984
I3490
sI2985
I1018
sI2986
I1726
sI2987
I218
sI2988
I2624
sI2989
I1019
sI2990
I1112
sI2991
I1113
sI2992
I2964
sI2993
I1022
sI2994
I2749
sI2995
I2158
sI2996
I2659
sI2997
I184
sI2998
I2515
sI2999
I2865
sI3000
I1166
sI3001
I2404
sI3002
I2690
sI3003
I3428
sI3004
I875
sI3005
I876
sI3006
I256
sI3007
I2133
sI3008
I2750
sI3010
I2692
sI3011
I1727
sI3012
I1493
sI3013
I2360
sI3014
I2405
sI3015
I2072
sI3016
I278
sI3017
I1178
sI3018
I1536
sI3019
I1537
sI3020
I296
sI3021
I2967
sI3022
I1494
sI3024
I2013
sI3025
I3245
sI3026
I3306
sI3027
I3387
sI3028
I1495
sI3029
I2332
sI3030
I70
sI3031
I2794
sI3032
I967
sI3033
I864
sI3034
I620
sI3035
I76
sI3036
I841
sI3037
I623
sI3038
I2697
sI3039
I625
sI3040
I1351
sI3041
I2738
sI3042
I2871
sI3043
I2872
sI3044
I1258
sI3045
I1766
sI3046
I333
sI3047
I2698
sI3048
I2873
sI3049
I2001
sI3050
I2914
sI3051
I360
sI3052
I1200
sI3053
I1168
sI3054
I2184
sI3055
I2561
sI3056
I1362
sI3057
I3594
sI3058
I2969
sI3060
I1629
sI3061
I1631
sI3062
I1472
sI3063
I1373
sI3064
I2495
sI3065
I3633
sI3066
I677
sI3067
I1913
sI3068
I54
sI3069
I2151
sI3070
I847
sI3071
I81
sI3072
I392
sI3073
I2456
sI3074
I393
sI3075
I2701
sI3076
I1782
sI3077
I2563
sI3078
I1916
sI3079
I249
sI3081
I263
sI3082
I1145
sI3083
I266
sI3084
I3684
sI3085
I3543
sI3086
I691
sI3087
I692
sI3088
I1509
sI3089
I2033
sI3090
I2705
sI3091
I1638
sI3092
I1923
sI3093
I2233
sI3094
I2506
sI3095
I159
sI3096
I1513
sI3097
I708
sI3098
I1405
sI3099
I709
sI3100
I312
sI3101
I799
sI3102
I1471
sI3103
I2074
sI3104
I1251
sI3105
I18
sI3106
I3038
sI3107
I74
sI3108
I75
sI3109
I2075
sI3110
I1550
sI3111
I1551
sI3112
I2150
sI3113
I327
sI3114
I50
sI3115
I2134
sI3116
I3410
sI3117
I2559
sI3118
I2245
sI3119
I2994
sI3120
I1199
sI3121
I1554
sI3122
I3158
sI3123
I3672
sI3124
I2162
sI3125
I2438
sI3126
I3372
sI3127
I2733
sI3128
I2752
sI3129
I806
sI3130
I1370
sI3131
I3462
sI3132
I2455
sI3133
I3028
sI3134
I2031
sI3135
I2525
sI3136
I3528
sI3137
I3226
sI3138
I2362
sI3139
I2944
sI3140
I3238
sI3141
I2258
sI3142
I1669
sI3143
I3159
sI3144
I2741
sI3145
I901
sI3146
I812
sI3147
I85
sI3148
I444
sI3149
I2859
sI3150
I2446
sI3151
I3384
sI3152
I1394
sI3153
I689
sI3154
I2457
sI3155
I452
sI3156
I988
sI3157
I1691
sI3158
I2800
sI3159
I1523
sI3160
I524
sI3161
I2876
sI3162
I2833
sI3163
I281
sI3164
I3676
sI3165
I2854
sI3166
I3530
sI3167
I1573
sI3168
I201
sI3169
I1574
sI3171
I2938
sI3172
I3632
sI3173
I480
sI3174
I732
sI3175
I733
sI3176
I305
sI3177
I2323
sI3178
I530
sI3179
I1927
sI3180
I2837
sI3181
I2802
sI3182
I820
sI3183
I3068
sI3184
I3285
sI3185
I2036
sI3186
I31
sI3187
I2903
sI3188
I2711
sI3189
I751
sI3190
I2059
sI3192
I2564
sI3194
I761
sI3196
I1675
sI3197
I1481
sI3198
I763
sI3199
I2614
sI3200
I1502
sI3201
I2030
sI3202
I3641
sI3203
I1558
sI3204
I1559
sI3205
I3458
sI3206
I1372
sI3207
I3605
sI3208
I1138
sI3209
I3379
sI3210
I1210
sI3211
I2412
sI3212
I3499
sI3213
I440
sI3214
I2542
sI3215
I2936
sI3216
I3500
sI3217
I2002
sI3218
I3337
sI3219
I1387
sI3220
I3502
sI3221
I2924
sI3222
I2937
sI3223
I3252
sI3224
I2032
sI3225
I2275
sI3228
I3463
sI3229
I3663
sI3230
I1572
sI3232
I3257
sI3233
I3629
sI3235
I2703
sI3236
I3648
sI3237
I3630
sI3238
I2057
sI3239
I3056
sI3240
I3058
sI3241
I2706
sI3242
I3606
sI3243
I1221
sI3244
I1516
sI3245
I2801
sI3246
I479
sI3247
I731
sI3248
I1415
sI3249
I304
sI3250
I483
sI3251
I1738
sI3252
I484
sI3253
I537
sI3254
I746
sI3255
I89
sI3256
I90
sI3257
I91
sI3258
I1225
sI3259
I487
sI3260
I337
sI3261
I918
sI3262
I2674
sI3263
I1431
sI3264
I760
sI3265
I497
sI3266
I347
sI3267
I348
sI3268
I1169
sI3269
I858
sI3270
I548
sI3271
I1590
sI3272
I2565
sI3273
I1162
sI3274
I1439
sI3275
I2566
sI3276
I3027
sI3277
I3559
sI3280
I1805
sI3281
I2735
sI3282
I2217
sI3283
I3541
sI3284
I1746
sI3285
I1935
sI3286
I1521
sI3287
I1323
sI3288
I3573
sI3289
I3042
sI3290
I3674
sI3291
I3209
sI3292
I2527
sI3293
I3127
sI3294
I3467
sI3295
I3562
sI3296
I570
sI3297
I3591
sI3298
I516
sI3299
I2240
sI3300
I993
sI3301
I522
sI3302
I2591
sI3303
I3493
sI3304
I2415
sI3305
I3468
sI3306
I3281
sI3307
I1922
sI3308
I1403
sI3309
I705
sI3310
I3029
sI3311
I2458
sI3312
I3531
sI3313
I3213
sI3314
I3216
sI3315
I3677
sI3316
I2058
sI3317
I2091
sI3318
I2995
sI3319
I3315
sI3320
I1640
sI3321
I3533
sI3322
I3492
sI3323
I3695
sI3324
I2239
sI3325
I1159
sI3326
I1929
sI3327
I2349
sI3328
I2018
sI3329
I2680
sI3330
I2095
sI3331
I1430
sI3333
I3341
sI3334
I121
sI3335
I2996
sI3336
I3670
sI3337
I3665
sI3338
I1288
sI3339
I2981
sI3340
I1587
sI3341
I1518
sI3342
I1933
sI3343
I2906
sI3344
I2997
sI3345
I2989
sI3346
I2998
sI3347
I773
sI3349
I1519
sI3350
I2038
sI3351
I2970
sI3352
I3574
sI3353
I3572
sI3354
I860
sI3355
I1171
sI3357
I2324
sI3358
I552
sI3359
I553
sI3360
I1331
sI3361
I1298
sI3362
I829
sI3363
I565
sI3364
I1445
sI3365
I1608
sI3366
I1468
sI3367
I2946
sI3368
I3160
sI3370
I1469
sI3371
I2528
sI3372
I3011
sI3373
I3619
sI3374
I3114
sI3375
I953
sI3376
I3643
sI3377
I3563
sI3378
I3256
sI3379
I2714
sI3380
I3469
sI3381
I3621
sI3382
I3697
sI3384
I2250
sI3385
I2551
sI3386
I292
sI3387
I1593
sI3388
I604
sI3389
I2422
sI3390
I1881
sI3391
I2739
sI3392
I2510
sI3393
I1949
sI3394
I2552
sI3395
I2511
sI3396
I798
sI3397
I1050
sI3398
I1051
sI3399
I1052
sI3400
I2192
sI3401
I2673
sI3402
I3338
sI3403
I2367
sI3404
I1835
sI3405
I1479
sI3406
I1704
sI3407
I3246
sI3408
I3
sI3409
I340
sI3410
I3152
sI3412
I1706
sI3413
I3651
sI3414
I2037
sI3415
I2609
sI3416
I2479
sI3417
I859
sI3418
I156
sI3419
I3471
sI3420
I1233
sI3421
I175
sI3422
I1319
sI3423
I1320
sI3424
I1297
sI3425
I436
sI3426
I1322
sI3427
I2881
sI3428
I3132
sI3429
I1520
sI3430
I2098
sI3431
I2545
sI3432
I2546
sI3433
I2547
sI3434
I2548
sI3435
I1237
sI3436
I1749
sI3437
I1938
sI3438
I568
sI3439
I569
sI3440
I1028
sI3441
I1336
sI3442
I3210
sI3443
I3612
sI3444
I2170
sI3445
I3043
sI3446
I3023
sI3447
I589
sI3448
I792
sI3449
I2746
sI3450
I1181
sI3451
I158
sI3452
I526
sI3453
I2281
sI3454
I2282
sI3456
I2716
sI3457
I956
sI3458
I3567
sI3459
I2808
sI3460
I3671
sI3461
I884
sI3462
I1497
sI3463
I3247
sI3464
I1947
sI3465
I2423
sI3466
I616
sI3467
I1619
sI3468
I63
sI3469
I1447
sI3470
I2610
sI3471
I96
sI3472
I3595
sI3473
I1622
sI3474
I1255
sI3475
I2688
sI3476
I325
sI3477
I1848
sI3478
I1955
sI3479
I842
sI3480
I1660
sI3481
I499
sI3482
I3371
sI3483
I1854
sI3484
I544
sI3485
I3600
sI3486
I3432
sI3487
I2948
sI3488
I2973
sI3489
I656
sI3490
I3002
sI3491
I2380
sI3492
I3393
sI3493
I3510
sI3494
I845
sI3495
I3312
sI3496
I2887
sI3497
I2429
sI3498
I1557
sI3499
I374
sI3500
I443
sI3501
I391
sI3502
I1329
sI3503
I951
sI3504
I1529
sI3505
I1234
sI3506
I1330
sI3507
I1236
sI3508
I394
sI3509
I1880
sI3510
I519
sI3511
I2060
sI3512
I1613
sI3513
I267
sI3514
I270
sI3515
I2279
sI3516
I933
sI3517
I3489
sI3518
I2100
sI3519
I1693
sI3520
I2661
sI3521
I1247
sI3522
I3561
sI3523
I3323
sI3524
I399
sI3525
I601
sI3526
I1042
sI3527
I214
sI3528
I471
sI3529
I2101
sI3530
I3700
sI3531
I3018
sI3532
I2810
sI3533
I3607
sI3534
I178
sI3535
I885
sI3536
I405
sI3537
I2351
sI3538
I2400
sI3539
I2520
sI3540
I1763
sI3542
I3447
sI3543
I1348
sI3544
I2920
sI3545
I2041
sI3546
I1546
sI3547
I2719
sI3548
I1462
sI3549
I1623
sI3550
I1961
sI3551
I1262
sI3552
I198
sI3553
I1888
sI3554
I1487
sI3555
I1712
sI3556
I1263
sI3557
I1964
sI3559
I2721
sI3562
I2908
sI3563
I2916
sI3564
I2061
sI3565
I429
sI3566
I892
sI3567
I1627
sI3568
I2724
sI3569
I2984
sI3570
I3305
sI3571
I1971
sI3572
I2958
sI3573
I2975
sI3574
I3365
sI3575
I3279
sI3576
I980
sI3577
I2927
sI3578
I68
sI3579
I2498
sI3580
I2326
sI3581
I2598
sI3584
I1389
sI3585
I2557
sI3586
I2940
sI3587
I1567
sI3588
I3232
sI3590
I1397
sI3591
I695
sI3592
I2664
sI3593
I697
sI3594
I992
sI3595
I3548
sI3596
I1148
sI3597
I1597
sI3598
I2599
sI3599
I1571
sI3600
I402
sI3601
I3491
sI3602
I2103
sI3603
I3636
sI3604
I403
sI3605
I1946
sI3606
I2220
sI3607
I3704
sI3608
I614
sI3609
I3625
sI3610
I410
sI3611
I3218
sI3612
I1729
sI3613
I2108
sI3614
I1346
sI3615
I1846
sI3616
I1882
sI3617
I1887
sI3618
I1254
sI3619
I190
sI3620
I1960
sI3621
I3508
sI3622
I2885
sI3623
I541
sI3624
I349
sI3625
I2574
sI3626
I3097
sI3627
I2521
sI3628
I1698
sI3629
I652
sI3631
I3634
sI3632
I3215
sI3633
I1068
sI3634
I1268
sI3635
I1069
sI3636
I3405
sI3637
I3110
sI3638
I975
sI3639
I1071
sI3640
I1504
sI3641
I3511
sI3642
I3433
sI3643
I1699
sI3644
I3459
sI3645
I3019
sI3646
I899
sI3647
I3286
sI3648
I3172
sI3649
I1634
sI3651
I3003
sI3652
I3558
sI3653
I2855
sI3654
I99
sI3655
I2044
sI3656
I3693
sI3657
I3439
sI3658
I833
sI3659
I2381
sI3660
I1214
sI3661
I1215
sI3662
I991
sI3663
I2022
sI3664
I2023
sI3665
I3030
sI3666
I3560
sI3667
I2953
sI3668
I700
sI3669
I3020
sI3670
I3087
sI3671
I203
sI3672
I2004
sI3673
I2675
sI3674
I2676
sI3675
I721
sI3676
I1318
sI3677
I1820
sI3678
I169
sI3679
I2522
sI3680
I2729
sI3681
I1578
sI3682
I407
sI3683
I1456
sI3684
I1418
sI3685
I409
sI3686
I1419
sI3687
I3518
sI3688
I742
sI3689
I1422
sI3690
I1428
sI3691
I3136
sI3692
I2979
sI3693
I1580
sI3694
I2010
sI3695
I2892
sI3696
I1006
sI3697
I1674
sI3698
I1101
sI3699
I112
sI3700
I973
sI3701
I663
sI3702
I211
sI3703
I664
sI3704
I666
sI3705
I1067
sI3706
I1662
sI3707
I1306
sI3708
I1269
sI3709
I2651
sI3710
I2212
sI3711
I2767
sI3712
I1596
sI3713
I978
sI3714
I2939
sI3715
I2740
sI3716
I2909
sI3717
I387
sI3718
I2575
sI3719
I2500
sI3720
I2451
sI3721
I3141
sI3722
I3477
sI3723
I685
sI3724
I2115
sI3725
I1636
sI3726
I1473
sI3727
I1565
sI3728
I253
sI3729
I2116
sI3730
I1453
sI3731
I2725
sI3732
I2950
sI3733
I1568
sI3734
I2941
sI3735
I135
sI3736
I2312
sI3737
I3199
sI3738
I2118
sI3739
I3125
sI3740
I1280
sI3741
I1281
sI3742
I2047
sI3743
I2062
sI3744
I293
sI3745
I853
sI3746
I2490
sI3747
I1986
sI3748
I3545
sI3749
I2601
sI3751
I531
sI3752
I1157
sI3753
I406
sI3754
I2328
sI3755
I533
sI3756
I2453
sI3757
I3390
sI3758
I1720
sI3759
I3222
sI3760
I1579
sI3761
I2832
sI3762
I3631
sI3763
I1285
sI3764
I1991
sI3765
I2957
sI3766
I2436
sI3767
I2176
sI3768
I2177
sI3769
I1477
sI3770
I1290
sI3771
I1742
sI3772
I3391
sI3773
I924
sI3774
I1170
sI3775
I3223
sI3776
I2287
sI3777
I2991
sI3778
I3540
sI3779
I3623
sI3780
I1725
sI3781
I3031
sI3782
I2658
sI3783
I2214
sI3784
I2064
sI3785
I837
sI3786
I380
sI3787
I1525
sI3788
I1652
sI3789
I2065
sI3790
I3131
sI3791
I2320
sI3792
I2403
sI3793
I237
sI3794
I2006
sI3795
I2445
sI3796
I2792
sI3797
I2007
sI3798
I872
sI3799
I241
sI3800
I3339
sI3801
I2524
sI3802
I1716
sI3803
I3273
sI3804
I2890
sI3805
I3186
sI3806
I2384
sI3807
I1718
sI3808
I2045
sI3809
I138
sI3810
I2783
sI3811
I2046
sI3812
I710
sI3813
I2513
sI3814
I1789
sI3816
I2048
sI3817
I3105
sI3818
I3588
sI3819
I2489
sI3820
I2009
sI3821
I1524
sI3822
I2452
sI3823
I2602
sI3824
I2285
sI3825
I2241
sI3826
I532
sI3827
I999
sI3828
I3515
sI3830
I2930
sI3831
I1643
sI3832
I3135
sI3833
I2977
sI3834
I2532
sI3835
I1227
sI3836
I1476
sI3837
I2298
sI3838
I2978
sI3839
I2775
sI3840
I2393
sI3841
I2127
sI3842
I3637
sI3843
I2394
sI3844
I1585
sI3845
I3280
sI3846
I1437
sI3847
I3389
sI3848
I3224
sI3849
I2437
sI3850
I3340
sI3851
I2918
sI3852
I1650
sI3853
I2533
sI3854
I2932
sI3855
I2534
sI3857
I2454
sI3858
I2584
sI3859
I2243
sI3860
I2586
sI3861
I1879
sI3862
I3237
sI3863
I949
sI3864
I1678
sI3865
I2444
sI3866
I3241
sI3867
I2791
sI3868
I182
sI3869
I561
sI3870
I2301
sI3871
I1610
sI3872
I2321
sI3873
I1753
sI3874
I1754
sI3875
I3200
sI3876
I3523
sI3877
I1026
sI3878
I3219
sI3879
I952
sI3880
I3309
sI3881
I3610
sI3882
I2056
sI3883
I2348
sI3884
I2499
sI3885
I2695
sI3886
I2778
sI3887
I3494
sI3888
I3473
sI3889
I1040
sI3890
I3585
sI3891
I3242
sI3892
I3157
sI3893
I173
sI3894
I3047
sI3895
I2271
sI3896
I1187
sI3897
I831
sI3898
I2211
sI3899
I3243
sI3900
I3180
sI3901
I2316
sI3902
I2822
sI3903
I2582
sI3904
I3482
sI3905
I3480
sI3906
I2583
sI3908
I2063
sI3909
I2788
sI3910
I2051
sI3911
I1105
sI3912
I3128
sI3913
I2340
sI3914
I2242
sI3915
I2329
sI3916
I545
sI3917
I1229
sI3918
I1993
sI3919
I1994
sI3920
I1293
sI3921
I2396
sI3922
I2666
sI3923
I2026
sI3924
I2667
sI3925
I2341
sI3926
I1875
sI3927
I1015
sI3928
I780
sI3929
I2131
sI3930
I1110
sI3931
I2963
sI3932
I948
sI3933
I2296
sI3934
I2401
sI3935
I1527
sI3936
I2318
sI3937
I1709
sI3938
I2339
sI3939
I1806
sI3940
I3204
sI3941
I2358
sI3942
I2359
sI3943
I1484
sI3944
I3239
sI3945
I2852
sI3946
I2210
sI3947
I2857
sI3948
I517
sI3949
I1485
sI3950
I2587
sI3951
I2693
sI3952
I1244
s.